ARM GAS  /tmp/ccMIeWgi.s 			page 1


   1              		.cpu cortex-m4
   2              		.eabi_attribute 27, 1
   3              		.eabi_attribute 28, 1
   4              		.eabi_attribute 20, 1
   5              		.eabi_attribute 21, 1
   6              		.eabi_attribute 23, 3
   7              		.eabi_attribute 24, 1
   8              		.eabi_attribute 25, 1
   9              		.eabi_attribute 26, 1
  10              		.eabi_attribute 30, 1
  11              		.eabi_attribute 34, 1
  12              		.eabi_attribute 18, 4
  13              		.file	"stm32f3xx_hal_uart_ex.c"
  14              		.text
  15              	.Ltext0:
  16              		.cfi_sections	.debug_frame
  17              		.section	.text.UARTEx_Wakeup_AddressConfig,"ax",%progbits
  18              		.align	1
  19              		.arch armv7e-m
  20              		.syntax unified
  21              		.thumb
  22              		.thumb_func
  23              		.fpu fpv4-sp-d16
  25              	UARTEx_Wakeup_AddressConfig:
  26              	.LVL0:
  27              	.LFB139:
  28              		.file 1 "Drivers/STM32F3xx_HAL_Driver/Src/stm32f3xx_hal_uart_ex.c"
   1:Drivers/STM32F3xx_HAL_Driver/Src/stm32f3xx_hal_uart_ex.c **** /**
   2:Drivers/STM32F3xx_HAL_Driver/Src/stm32f3xx_hal_uart_ex.c ****   ******************************************************************************
   3:Drivers/STM32F3xx_HAL_Driver/Src/stm32f3xx_hal_uart_ex.c ****   * @file    stm32f3xx_hal_uart_ex.c
   4:Drivers/STM32F3xx_HAL_Driver/Src/stm32f3xx_hal_uart_ex.c ****   * @author  MCD Application Team
   5:Drivers/STM32F3xx_HAL_Driver/Src/stm32f3xx_hal_uart_ex.c ****   * @brief   Extended UART HAL module driver.
   6:Drivers/STM32F3xx_HAL_Driver/Src/stm32f3xx_hal_uart_ex.c ****   *          This file provides firmware functions to manage the following extended
   7:Drivers/STM32F3xx_HAL_Driver/Src/stm32f3xx_hal_uart_ex.c ****   *          functionalities of the Universal Asynchronous Receiver Transmitter Peripheral (UART).
   8:Drivers/STM32F3xx_HAL_Driver/Src/stm32f3xx_hal_uart_ex.c ****   *           + Initialization and de-initialization functions
   9:Drivers/STM32F3xx_HAL_Driver/Src/stm32f3xx_hal_uart_ex.c ****   *           + Peripheral Control functions
  10:Drivers/STM32F3xx_HAL_Driver/Src/stm32f3xx_hal_uart_ex.c ****   *
  11:Drivers/STM32F3xx_HAL_Driver/Src/stm32f3xx_hal_uart_ex.c ****   *
  12:Drivers/STM32F3xx_HAL_Driver/Src/stm32f3xx_hal_uart_ex.c ****   @verbatim
  13:Drivers/STM32F3xx_HAL_Driver/Src/stm32f3xx_hal_uart_ex.c ****   ==============================================================================
  14:Drivers/STM32F3xx_HAL_Driver/Src/stm32f3xx_hal_uart_ex.c ****                ##### UART peripheral extended features  #####
  15:Drivers/STM32F3xx_HAL_Driver/Src/stm32f3xx_hal_uart_ex.c ****   ==============================================================================
  16:Drivers/STM32F3xx_HAL_Driver/Src/stm32f3xx_hal_uart_ex.c **** 
  17:Drivers/STM32F3xx_HAL_Driver/Src/stm32f3xx_hal_uart_ex.c ****     (#) Declare a UART_HandleTypeDef handle structure.
  18:Drivers/STM32F3xx_HAL_Driver/Src/stm32f3xx_hal_uart_ex.c **** 
  19:Drivers/STM32F3xx_HAL_Driver/Src/stm32f3xx_hal_uart_ex.c ****     (#) For the UART RS485 Driver Enable mode, initialize the UART registers
  20:Drivers/STM32F3xx_HAL_Driver/Src/stm32f3xx_hal_uart_ex.c ****         by calling the HAL_RS485Ex_Init() API.
  21:Drivers/STM32F3xx_HAL_Driver/Src/stm32f3xx_hal_uart_ex.c **** 
  22:Drivers/STM32F3xx_HAL_Driver/Src/stm32f3xx_hal_uart_ex.c ****   @endverbatim
  23:Drivers/STM32F3xx_HAL_Driver/Src/stm32f3xx_hal_uart_ex.c ****   ******************************************************************************
  24:Drivers/STM32F3xx_HAL_Driver/Src/stm32f3xx_hal_uart_ex.c ****   * @attention
  25:Drivers/STM32F3xx_HAL_Driver/Src/stm32f3xx_hal_uart_ex.c ****   *
  26:Drivers/STM32F3xx_HAL_Driver/Src/stm32f3xx_hal_uart_ex.c ****   * <h2><center>&copy; Copyright (c) 2016 STMicroelectronics.
  27:Drivers/STM32F3xx_HAL_Driver/Src/stm32f3xx_hal_uart_ex.c ****   * All rights reserved.</center></h2>
  28:Drivers/STM32F3xx_HAL_Driver/Src/stm32f3xx_hal_uart_ex.c ****   *
  29:Drivers/STM32F3xx_HAL_Driver/Src/stm32f3xx_hal_uart_ex.c ****   * This software component is licensed by ST under BSD 3-Clause license,
  30:Drivers/STM32F3xx_HAL_Driver/Src/stm32f3xx_hal_uart_ex.c ****   * the "License"; You may not use this file except in compliance with the
ARM GAS  /tmp/ccMIeWgi.s 			page 2


  31:Drivers/STM32F3xx_HAL_Driver/Src/stm32f3xx_hal_uart_ex.c ****   * License. You may obtain a copy of the License at:
  32:Drivers/STM32F3xx_HAL_Driver/Src/stm32f3xx_hal_uart_ex.c ****   *                        opensource.org/licenses/BSD-3-Clause
  33:Drivers/STM32F3xx_HAL_Driver/Src/stm32f3xx_hal_uart_ex.c ****   *
  34:Drivers/STM32F3xx_HAL_Driver/Src/stm32f3xx_hal_uart_ex.c ****   ******************************************************************************
  35:Drivers/STM32F3xx_HAL_Driver/Src/stm32f3xx_hal_uart_ex.c ****   */
  36:Drivers/STM32F3xx_HAL_Driver/Src/stm32f3xx_hal_uart_ex.c **** 
  37:Drivers/STM32F3xx_HAL_Driver/Src/stm32f3xx_hal_uart_ex.c **** /* Includes ------------------------------------------------------------------*/
  38:Drivers/STM32F3xx_HAL_Driver/Src/stm32f3xx_hal_uart_ex.c **** #include "stm32f3xx_hal.h"
  39:Drivers/STM32F3xx_HAL_Driver/Src/stm32f3xx_hal_uart_ex.c **** 
  40:Drivers/STM32F3xx_HAL_Driver/Src/stm32f3xx_hal_uart_ex.c **** /** @addtogroup STM32F3xx_HAL_Driver
  41:Drivers/STM32F3xx_HAL_Driver/Src/stm32f3xx_hal_uart_ex.c ****   * @{
  42:Drivers/STM32F3xx_HAL_Driver/Src/stm32f3xx_hal_uart_ex.c ****   */
  43:Drivers/STM32F3xx_HAL_Driver/Src/stm32f3xx_hal_uart_ex.c **** 
  44:Drivers/STM32F3xx_HAL_Driver/Src/stm32f3xx_hal_uart_ex.c **** /** @defgroup UARTEx UARTEx
  45:Drivers/STM32F3xx_HAL_Driver/Src/stm32f3xx_hal_uart_ex.c ****   * @brief UART Extended HAL module driver
  46:Drivers/STM32F3xx_HAL_Driver/Src/stm32f3xx_hal_uart_ex.c ****   * @{
  47:Drivers/STM32F3xx_HAL_Driver/Src/stm32f3xx_hal_uart_ex.c ****   */
  48:Drivers/STM32F3xx_HAL_Driver/Src/stm32f3xx_hal_uart_ex.c **** 
  49:Drivers/STM32F3xx_HAL_Driver/Src/stm32f3xx_hal_uart_ex.c **** #ifdef HAL_UART_MODULE_ENABLED
  50:Drivers/STM32F3xx_HAL_Driver/Src/stm32f3xx_hal_uart_ex.c **** 
  51:Drivers/STM32F3xx_HAL_Driver/Src/stm32f3xx_hal_uart_ex.c **** /* Private typedef -----------------------------------------------------------*/
  52:Drivers/STM32F3xx_HAL_Driver/Src/stm32f3xx_hal_uart_ex.c **** /* Private define ------------------------------------------------------------*/
  53:Drivers/STM32F3xx_HAL_Driver/Src/stm32f3xx_hal_uart_ex.c **** 
  54:Drivers/STM32F3xx_HAL_Driver/Src/stm32f3xx_hal_uart_ex.c **** /* Private macros ------------------------------------------------------------*/
  55:Drivers/STM32F3xx_HAL_Driver/Src/stm32f3xx_hal_uart_ex.c **** /* Private variables ---------------------------------------------------------*/
  56:Drivers/STM32F3xx_HAL_Driver/Src/stm32f3xx_hal_uart_ex.c **** /* Private function prototypes -----------------------------------------------*/
  57:Drivers/STM32F3xx_HAL_Driver/Src/stm32f3xx_hal_uart_ex.c **** /** @defgroup UARTEx_Private_Functions UARTEx Private Functions
  58:Drivers/STM32F3xx_HAL_Driver/Src/stm32f3xx_hal_uart_ex.c ****   * @{
  59:Drivers/STM32F3xx_HAL_Driver/Src/stm32f3xx_hal_uart_ex.c ****   */
  60:Drivers/STM32F3xx_HAL_Driver/Src/stm32f3xx_hal_uart_ex.c **** static void UARTEx_Wakeup_AddressConfig(UART_HandleTypeDef *huart, UART_WakeUpTypeDef WakeUpSelecti
  61:Drivers/STM32F3xx_HAL_Driver/Src/stm32f3xx_hal_uart_ex.c **** /**
  62:Drivers/STM32F3xx_HAL_Driver/Src/stm32f3xx_hal_uart_ex.c ****   * @}
  63:Drivers/STM32F3xx_HAL_Driver/Src/stm32f3xx_hal_uart_ex.c ****   */
  64:Drivers/STM32F3xx_HAL_Driver/Src/stm32f3xx_hal_uart_ex.c **** 
  65:Drivers/STM32F3xx_HAL_Driver/Src/stm32f3xx_hal_uart_ex.c **** /* Exported functions --------------------------------------------------------*/
  66:Drivers/STM32F3xx_HAL_Driver/Src/stm32f3xx_hal_uart_ex.c **** 
  67:Drivers/STM32F3xx_HAL_Driver/Src/stm32f3xx_hal_uart_ex.c **** /** @defgroup UARTEx_Exported_Functions  UARTEx Exported Functions
  68:Drivers/STM32F3xx_HAL_Driver/Src/stm32f3xx_hal_uart_ex.c ****   * @{
  69:Drivers/STM32F3xx_HAL_Driver/Src/stm32f3xx_hal_uart_ex.c ****   */
  70:Drivers/STM32F3xx_HAL_Driver/Src/stm32f3xx_hal_uart_ex.c **** 
  71:Drivers/STM32F3xx_HAL_Driver/Src/stm32f3xx_hal_uart_ex.c **** /** @defgroup UARTEx_Exported_Functions_Group1 Initialization and de-initialization functions
  72:Drivers/STM32F3xx_HAL_Driver/Src/stm32f3xx_hal_uart_ex.c ****   * @brief    Extended Initialization and Configuration Functions
  73:Drivers/STM32F3xx_HAL_Driver/Src/stm32f3xx_hal_uart_ex.c ****   *
  74:Drivers/STM32F3xx_HAL_Driver/Src/stm32f3xx_hal_uart_ex.c **** @verbatim
  75:Drivers/STM32F3xx_HAL_Driver/Src/stm32f3xx_hal_uart_ex.c **** ===============================================================================
  76:Drivers/STM32F3xx_HAL_Driver/Src/stm32f3xx_hal_uart_ex.c ****             ##### Initialization and Configuration functions #####
  77:Drivers/STM32F3xx_HAL_Driver/Src/stm32f3xx_hal_uart_ex.c ****  ===============================================================================
  78:Drivers/STM32F3xx_HAL_Driver/Src/stm32f3xx_hal_uart_ex.c ****     [..]
  79:Drivers/STM32F3xx_HAL_Driver/Src/stm32f3xx_hal_uart_ex.c ****     This subsection provides a set of functions allowing to initialize the USARTx or the UARTy
  80:Drivers/STM32F3xx_HAL_Driver/Src/stm32f3xx_hal_uart_ex.c ****     in asynchronous mode.
  81:Drivers/STM32F3xx_HAL_Driver/Src/stm32f3xx_hal_uart_ex.c ****       (+) For the asynchronous mode the parameters below can be configured:
  82:Drivers/STM32F3xx_HAL_Driver/Src/stm32f3xx_hal_uart_ex.c ****         (++) Baud Rate
  83:Drivers/STM32F3xx_HAL_Driver/Src/stm32f3xx_hal_uart_ex.c ****         (++) Word Length
  84:Drivers/STM32F3xx_HAL_Driver/Src/stm32f3xx_hal_uart_ex.c ****         (++) Stop Bit
  85:Drivers/STM32F3xx_HAL_Driver/Src/stm32f3xx_hal_uart_ex.c ****         (++) Parity: If the parity is enabled, then the MSB bit of the data written
  86:Drivers/STM32F3xx_HAL_Driver/Src/stm32f3xx_hal_uart_ex.c ****              in the data register is transmitted but is changed by the parity bit.
  87:Drivers/STM32F3xx_HAL_Driver/Src/stm32f3xx_hal_uart_ex.c ****         (++) Hardware flow control
ARM GAS  /tmp/ccMIeWgi.s 			page 3


  88:Drivers/STM32F3xx_HAL_Driver/Src/stm32f3xx_hal_uart_ex.c ****         (++) Receiver/transmitter modes
  89:Drivers/STM32F3xx_HAL_Driver/Src/stm32f3xx_hal_uart_ex.c ****         (++) Over Sampling Method
  90:Drivers/STM32F3xx_HAL_Driver/Src/stm32f3xx_hal_uart_ex.c ****         (++) One-Bit Sampling Method
  91:Drivers/STM32F3xx_HAL_Driver/Src/stm32f3xx_hal_uart_ex.c ****       (+) For the asynchronous mode, the following advanced features can be configured as well:
  92:Drivers/STM32F3xx_HAL_Driver/Src/stm32f3xx_hal_uart_ex.c ****         (++) TX and/or RX pin level inversion
  93:Drivers/STM32F3xx_HAL_Driver/Src/stm32f3xx_hal_uart_ex.c ****         (++) data logical level inversion
  94:Drivers/STM32F3xx_HAL_Driver/Src/stm32f3xx_hal_uart_ex.c ****         (++) RX and TX pins swap
  95:Drivers/STM32F3xx_HAL_Driver/Src/stm32f3xx_hal_uart_ex.c ****         (++) RX overrun detection disabling
  96:Drivers/STM32F3xx_HAL_Driver/Src/stm32f3xx_hal_uart_ex.c ****         (++) DMA disabling on RX error
  97:Drivers/STM32F3xx_HAL_Driver/Src/stm32f3xx_hal_uart_ex.c ****         (++) MSB first on communication line
  98:Drivers/STM32F3xx_HAL_Driver/Src/stm32f3xx_hal_uart_ex.c ****         (++) auto Baud rate detection
  99:Drivers/STM32F3xx_HAL_Driver/Src/stm32f3xx_hal_uart_ex.c ****     [..]
 100:Drivers/STM32F3xx_HAL_Driver/Src/stm32f3xx_hal_uart_ex.c ****     The HAL_RS485Ex_Init() API follows the UART RS485 mode configuration
 101:Drivers/STM32F3xx_HAL_Driver/Src/stm32f3xx_hal_uart_ex.c ****      procedures (details for the procedures are available in reference manual).
 102:Drivers/STM32F3xx_HAL_Driver/Src/stm32f3xx_hal_uart_ex.c **** 
 103:Drivers/STM32F3xx_HAL_Driver/Src/stm32f3xx_hal_uart_ex.c **** @endverbatim
 104:Drivers/STM32F3xx_HAL_Driver/Src/stm32f3xx_hal_uart_ex.c **** 
 105:Drivers/STM32F3xx_HAL_Driver/Src/stm32f3xx_hal_uart_ex.c ****   Depending on the frame length defined by the M1 and M0 bits (7-bit,
 106:Drivers/STM32F3xx_HAL_Driver/Src/stm32f3xx_hal_uart_ex.c ****   8-bit or 9-bit), the possible UART formats are listed in the
 107:Drivers/STM32F3xx_HAL_Driver/Src/stm32f3xx_hal_uart_ex.c ****   following table.
 108:Drivers/STM32F3xx_HAL_Driver/Src/stm32f3xx_hal_uart_ex.c **** 
 109:Drivers/STM32F3xx_HAL_Driver/Src/stm32f3xx_hal_uart_ex.c ****     Table 1. UART frame format.
 110:Drivers/STM32F3xx_HAL_Driver/Src/stm32f3xx_hal_uart_ex.c ****     +-----------------------------------------------------------------------+
 111:Drivers/STM32F3xx_HAL_Driver/Src/stm32f3xx_hal_uart_ex.c ****     |  M1 bit |  M0 bit |  PCE bit  |             UART frame                |
 112:Drivers/STM32F3xx_HAL_Driver/Src/stm32f3xx_hal_uart_ex.c ****     |---------|---------|-----------|---------------------------------------|
 113:Drivers/STM32F3xx_HAL_Driver/Src/stm32f3xx_hal_uart_ex.c ****     |    0    |    0    |    0      |    | SB |    8 bit data   | STB |     |
 114:Drivers/STM32F3xx_HAL_Driver/Src/stm32f3xx_hal_uart_ex.c ****     |---------|---------|-----------|---------------------------------------|
 115:Drivers/STM32F3xx_HAL_Driver/Src/stm32f3xx_hal_uart_ex.c ****     |    0    |    0    |    1      |    | SB | 7 bit data | PB | STB |     |
 116:Drivers/STM32F3xx_HAL_Driver/Src/stm32f3xx_hal_uart_ex.c ****     |---------|---------|-----------|---------------------------------------|
 117:Drivers/STM32F3xx_HAL_Driver/Src/stm32f3xx_hal_uart_ex.c ****     |    0    |    1    |    0      |    | SB |    9 bit data   | STB |     |
 118:Drivers/STM32F3xx_HAL_Driver/Src/stm32f3xx_hal_uart_ex.c ****     |---------|---------|-----------|---------------------------------------|
 119:Drivers/STM32F3xx_HAL_Driver/Src/stm32f3xx_hal_uart_ex.c ****     |    0    |    1    |    1      |    | SB | 8 bit data | PB | STB |     |
 120:Drivers/STM32F3xx_HAL_Driver/Src/stm32f3xx_hal_uart_ex.c ****     |---------|---------|-----------|---------------------------------------|
 121:Drivers/STM32F3xx_HAL_Driver/Src/stm32f3xx_hal_uart_ex.c ****     |    1    |    0    |    0      |    | SB |    7 bit data   | STB |     |
 122:Drivers/STM32F3xx_HAL_Driver/Src/stm32f3xx_hal_uart_ex.c ****     |---------|---------|-----------|---------------------------------------|
 123:Drivers/STM32F3xx_HAL_Driver/Src/stm32f3xx_hal_uart_ex.c ****     |    1    |    0    |    1      |    | SB | 6 bit data | PB | STB |     |
 124:Drivers/STM32F3xx_HAL_Driver/Src/stm32f3xx_hal_uart_ex.c ****     +-----------------------------------------------------------------------+
 125:Drivers/STM32F3xx_HAL_Driver/Src/stm32f3xx_hal_uart_ex.c **** 
 126:Drivers/STM32F3xx_HAL_Driver/Src/stm32f3xx_hal_uart_ex.c ****   * @{
 127:Drivers/STM32F3xx_HAL_Driver/Src/stm32f3xx_hal_uart_ex.c ****   */
 128:Drivers/STM32F3xx_HAL_Driver/Src/stm32f3xx_hal_uart_ex.c **** 
 129:Drivers/STM32F3xx_HAL_Driver/Src/stm32f3xx_hal_uart_ex.c **** /**
 130:Drivers/STM32F3xx_HAL_Driver/Src/stm32f3xx_hal_uart_ex.c ****   * @brief Initialize the RS485 Driver enable feature according to the specified
 131:Drivers/STM32F3xx_HAL_Driver/Src/stm32f3xx_hal_uart_ex.c ****   *         parameters in the UART_InitTypeDef and creates the associated handle.
 132:Drivers/STM32F3xx_HAL_Driver/Src/stm32f3xx_hal_uart_ex.c ****   * @param huart            UART handle.
 133:Drivers/STM32F3xx_HAL_Driver/Src/stm32f3xx_hal_uart_ex.c ****   * @param Polarity         Select the driver enable polarity.
 134:Drivers/STM32F3xx_HAL_Driver/Src/stm32f3xx_hal_uart_ex.c ****   *          This parameter can be one of the following values:
 135:Drivers/STM32F3xx_HAL_Driver/Src/stm32f3xx_hal_uart_ex.c ****   *          @arg @ref UART_DE_POLARITY_HIGH DE signal is active high
 136:Drivers/STM32F3xx_HAL_Driver/Src/stm32f3xx_hal_uart_ex.c ****   *          @arg @ref UART_DE_POLARITY_LOW  DE signal is active low
 137:Drivers/STM32F3xx_HAL_Driver/Src/stm32f3xx_hal_uart_ex.c ****   * @param AssertionTime    Driver Enable assertion time:
 138:Drivers/STM32F3xx_HAL_Driver/Src/stm32f3xx_hal_uart_ex.c ****   *       5-bit value defining the time between the activation of the DE (Driver Enable)
 139:Drivers/STM32F3xx_HAL_Driver/Src/stm32f3xx_hal_uart_ex.c ****   *       signal and the beginning of the start bit. It is expressed in sample time
 140:Drivers/STM32F3xx_HAL_Driver/Src/stm32f3xx_hal_uart_ex.c ****   *       units (1/8 or 1/16 bit time, depending on the oversampling rate)
 141:Drivers/STM32F3xx_HAL_Driver/Src/stm32f3xx_hal_uart_ex.c ****   * @param DeassertionTime  Driver Enable deassertion time:
 142:Drivers/STM32F3xx_HAL_Driver/Src/stm32f3xx_hal_uart_ex.c ****   *       5-bit value defining the time between the end of the last stop bit, in a
 143:Drivers/STM32F3xx_HAL_Driver/Src/stm32f3xx_hal_uart_ex.c ****   *       transmitted message, and the de-activation of the DE (Driver Enable) signal.
 144:Drivers/STM32F3xx_HAL_Driver/Src/stm32f3xx_hal_uart_ex.c ****   *       It is expressed in sample time units (1/8 or 1/16 bit time, depending on the
ARM GAS  /tmp/ccMIeWgi.s 			page 4


 145:Drivers/STM32F3xx_HAL_Driver/Src/stm32f3xx_hal_uart_ex.c ****   *       oversampling rate).
 146:Drivers/STM32F3xx_HAL_Driver/Src/stm32f3xx_hal_uart_ex.c ****   * @retval HAL status
 147:Drivers/STM32F3xx_HAL_Driver/Src/stm32f3xx_hal_uart_ex.c ****   */
 148:Drivers/STM32F3xx_HAL_Driver/Src/stm32f3xx_hal_uart_ex.c **** HAL_StatusTypeDef HAL_RS485Ex_Init(UART_HandleTypeDef *huart, uint32_t Polarity, uint32_t Assertion
 149:Drivers/STM32F3xx_HAL_Driver/Src/stm32f3xx_hal_uart_ex.c ****                                    uint32_t DeassertionTime)
 150:Drivers/STM32F3xx_HAL_Driver/Src/stm32f3xx_hal_uart_ex.c **** {
 151:Drivers/STM32F3xx_HAL_Driver/Src/stm32f3xx_hal_uart_ex.c ****   uint32_t temp;
 152:Drivers/STM32F3xx_HAL_Driver/Src/stm32f3xx_hal_uart_ex.c **** 
 153:Drivers/STM32F3xx_HAL_Driver/Src/stm32f3xx_hal_uart_ex.c ****   /* Check the UART handle allocation */
 154:Drivers/STM32F3xx_HAL_Driver/Src/stm32f3xx_hal_uart_ex.c ****   if (huart == NULL)
 155:Drivers/STM32F3xx_HAL_Driver/Src/stm32f3xx_hal_uart_ex.c ****   {
 156:Drivers/STM32F3xx_HAL_Driver/Src/stm32f3xx_hal_uart_ex.c ****     return HAL_ERROR;
 157:Drivers/STM32F3xx_HAL_Driver/Src/stm32f3xx_hal_uart_ex.c ****   }
 158:Drivers/STM32F3xx_HAL_Driver/Src/stm32f3xx_hal_uart_ex.c ****   /* Check the Driver Enable UART instance */
 159:Drivers/STM32F3xx_HAL_Driver/Src/stm32f3xx_hal_uart_ex.c ****   assert_param(IS_UART_DRIVER_ENABLE_INSTANCE(huart->Instance));
 160:Drivers/STM32F3xx_HAL_Driver/Src/stm32f3xx_hal_uart_ex.c **** 
 161:Drivers/STM32F3xx_HAL_Driver/Src/stm32f3xx_hal_uart_ex.c ****   /* Check the Driver Enable polarity */
 162:Drivers/STM32F3xx_HAL_Driver/Src/stm32f3xx_hal_uart_ex.c ****   assert_param(IS_UART_DE_POLARITY(Polarity));
 163:Drivers/STM32F3xx_HAL_Driver/Src/stm32f3xx_hal_uart_ex.c **** 
 164:Drivers/STM32F3xx_HAL_Driver/Src/stm32f3xx_hal_uart_ex.c ****   /* Check the Driver Enable assertion time */
 165:Drivers/STM32F3xx_HAL_Driver/Src/stm32f3xx_hal_uart_ex.c ****   assert_param(IS_UART_ASSERTIONTIME(AssertionTime));
 166:Drivers/STM32F3xx_HAL_Driver/Src/stm32f3xx_hal_uart_ex.c **** 
 167:Drivers/STM32F3xx_HAL_Driver/Src/stm32f3xx_hal_uart_ex.c ****   /* Check the Driver Enable deassertion time */
 168:Drivers/STM32F3xx_HAL_Driver/Src/stm32f3xx_hal_uart_ex.c ****   assert_param(IS_UART_DEASSERTIONTIME(DeassertionTime));
 169:Drivers/STM32F3xx_HAL_Driver/Src/stm32f3xx_hal_uart_ex.c **** 
 170:Drivers/STM32F3xx_HAL_Driver/Src/stm32f3xx_hal_uart_ex.c ****   if (huart->gState == HAL_UART_STATE_RESET)
 171:Drivers/STM32F3xx_HAL_Driver/Src/stm32f3xx_hal_uart_ex.c ****   {
 172:Drivers/STM32F3xx_HAL_Driver/Src/stm32f3xx_hal_uart_ex.c ****     /* Allocate lock resource and initialize it */
 173:Drivers/STM32F3xx_HAL_Driver/Src/stm32f3xx_hal_uart_ex.c ****     huart->Lock = HAL_UNLOCKED;
 174:Drivers/STM32F3xx_HAL_Driver/Src/stm32f3xx_hal_uart_ex.c **** 
 175:Drivers/STM32F3xx_HAL_Driver/Src/stm32f3xx_hal_uart_ex.c **** #if (USE_HAL_UART_REGISTER_CALLBACKS == 1)
 176:Drivers/STM32F3xx_HAL_Driver/Src/stm32f3xx_hal_uart_ex.c ****     UART_InitCallbacksToDefault(huart);
 177:Drivers/STM32F3xx_HAL_Driver/Src/stm32f3xx_hal_uart_ex.c **** 
 178:Drivers/STM32F3xx_HAL_Driver/Src/stm32f3xx_hal_uart_ex.c ****     if (huart->MspInitCallback == NULL)
 179:Drivers/STM32F3xx_HAL_Driver/Src/stm32f3xx_hal_uart_ex.c ****     {
 180:Drivers/STM32F3xx_HAL_Driver/Src/stm32f3xx_hal_uart_ex.c ****       huart->MspInitCallback = HAL_UART_MspInit;
 181:Drivers/STM32F3xx_HAL_Driver/Src/stm32f3xx_hal_uart_ex.c ****     }
 182:Drivers/STM32F3xx_HAL_Driver/Src/stm32f3xx_hal_uart_ex.c **** 
 183:Drivers/STM32F3xx_HAL_Driver/Src/stm32f3xx_hal_uart_ex.c ****     /* Init the low level hardware */
 184:Drivers/STM32F3xx_HAL_Driver/Src/stm32f3xx_hal_uart_ex.c ****     huart->MspInitCallback(huart);
 185:Drivers/STM32F3xx_HAL_Driver/Src/stm32f3xx_hal_uart_ex.c **** #else
 186:Drivers/STM32F3xx_HAL_Driver/Src/stm32f3xx_hal_uart_ex.c ****     /* Init the low level hardware : GPIO, CLOCK, CORTEX */
 187:Drivers/STM32F3xx_HAL_Driver/Src/stm32f3xx_hal_uart_ex.c ****     HAL_UART_MspInit(huart);
 188:Drivers/STM32F3xx_HAL_Driver/Src/stm32f3xx_hal_uart_ex.c **** #endif /* (USE_HAL_UART_REGISTER_CALLBACKS) */
 189:Drivers/STM32F3xx_HAL_Driver/Src/stm32f3xx_hal_uart_ex.c ****   }
 190:Drivers/STM32F3xx_HAL_Driver/Src/stm32f3xx_hal_uart_ex.c **** 
 191:Drivers/STM32F3xx_HAL_Driver/Src/stm32f3xx_hal_uart_ex.c ****   huart->gState = HAL_UART_STATE_BUSY;
 192:Drivers/STM32F3xx_HAL_Driver/Src/stm32f3xx_hal_uart_ex.c **** 
 193:Drivers/STM32F3xx_HAL_Driver/Src/stm32f3xx_hal_uart_ex.c ****   /* Disable the Peripheral */
 194:Drivers/STM32F3xx_HAL_Driver/Src/stm32f3xx_hal_uart_ex.c ****   __HAL_UART_DISABLE(huart);
 195:Drivers/STM32F3xx_HAL_Driver/Src/stm32f3xx_hal_uart_ex.c **** 
 196:Drivers/STM32F3xx_HAL_Driver/Src/stm32f3xx_hal_uart_ex.c ****   /* Set the UART Communication parameters */
 197:Drivers/STM32F3xx_HAL_Driver/Src/stm32f3xx_hal_uart_ex.c ****   if (UART_SetConfig(huart) == HAL_ERROR)
 198:Drivers/STM32F3xx_HAL_Driver/Src/stm32f3xx_hal_uart_ex.c ****   {
 199:Drivers/STM32F3xx_HAL_Driver/Src/stm32f3xx_hal_uart_ex.c ****     return HAL_ERROR;
 200:Drivers/STM32F3xx_HAL_Driver/Src/stm32f3xx_hal_uart_ex.c ****   }
 201:Drivers/STM32F3xx_HAL_Driver/Src/stm32f3xx_hal_uart_ex.c **** 
ARM GAS  /tmp/ccMIeWgi.s 			page 5


 202:Drivers/STM32F3xx_HAL_Driver/Src/stm32f3xx_hal_uart_ex.c ****   if (huart->AdvancedInit.AdvFeatureInit != UART_ADVFEATURE_NO_INIT)
 203:Drivers/STM32F3xx_HAL_Driver/Src/stm32f3xx_hal_uart_ex.c ****   {
 204:Drivers/STM32F3xx_HAL_Driver/Src/stm32f3xx_hal_uart_ex.c ****     UART_AdvFeatureConfig(huart);
 205:Drivers/STM32F3xx_HAL_Driver/Src/stm32f3xx_hal_uart_ex.c ****   }
 206:Drivers/STM32F3xx_HAL_Driver/Src/stm32f3xx_hal_uart_ex.c **** 
 207:Drivers/STM32F3xx_HAL_Driver/Src/stm32f3xx_hal_uart_ex.c ****   /* Enable the Driver Enable mode by setting the DEM bit in the CR3 register */
 208:Drivers/STM32F3xx_HAL_Driver/Src/stm32f3xx_hal_uart_ex.c ****   SET_BIT(huart->Instance->CR3, USART_CR3_DEM);
 209:Drivers/STM32F3xx_HAL_Driver/Src/stm32f3xx_hal_uart_ex.c **** 
 210:Drivers/STM32F3xx_HAL_Driver/Src/stm32f3xx_hal_uart_ex.c ****   /* Set the Driver Enable polarity */
 211:Drivers/STM32F3xx_HAL_Driver/Src/stm32f3xx_hal_uart_ex.c ****   MODIFY_REG(huart->Instance->CR3, USART_CR3_DEP, Polarity);
 212:Drivers/STM32F3xx_HAL_Driver/Src/stm32f3xx_hal_uart_ex.c **** 
 213:Drivers/STM32F3xx_HAL_Driver/Src/stm32f3xx_hal_uart_ex.c ****   /* Set the Driver Enable assertion and deassertion times */
 214:Drivers/STM32F3xx_HAL_Driver/Src/stm32f3xx_hal_uart_ex.c ****   temp = (AssertionTime << UART_CR1_DEAT_ADDRESS_LSB_POS);
 215:Drivers/STM32F3xx_HAL_Driver/Src/stm32f3xx_hal_uart_ex.c ****   temp |= (DeassertionTime << UART_CR1_DEDT_ADDRESS_LSB_POS);
 216:Drivers/STM32F3xx_HAL_Driver/Src/stm32f3xx_hal_uart_ex.c ****   MODIFY_REG(huart->Instance->CR1, (USART_CR1_DEDT | USART_CR1_DEAT), temp);
 217:Drivers/STM32F3xx_HAL_Driver/Src/stm32f3xx_hal_uart_ex.c **** 
 218:Drivers/STM32F3xx_HAL_Driver/Src/stm32f3xx_hal_uart_ex.c ****   /* Enable the Peripheral */
 219:Drivers/STM32F3xx_HAL_Driver/Src/stm32f3xx_hal_uart_ex.c ****   __HAL_UART_ENABLE(huart);
 220:Drivers/STM32F3xx_HAL_Driver/Src/stm32f3xx_hal_uart_ex.c **** 
 221:Drivers/STM32F3xx_HAL_Driver/Src/stm32f3xx_hal_uart_ex.c ****   /* TEACK and/or REACK to check before moving huart->gState and huart->RxState to Ready */
 222:Drivers/STM32F3xx_HAL_Driver/Src/stm32f3xx_hal_uart_ex.c ****   return (UART_CheckIdleState(huart));
 223:Drivers/STM32F3xx_HAL_Driver/Src/stm32f3xx_hal_uart_ex.c **** }
 224:Drivers/STM32F3xx_HAL_Driver/Src/stm32f3xx_hal_uart_ex.c **** 
 225:Drivers/STM32F3xx_HAL_Driver/Src/stm32f3xx_hal_uart_ex.c **** /**
 226:Drivers/STM32F3xx_HAL_Driver/Src/stm32f3xx_hal_uart_ex.c ****   * @}
 227:Drivers/STM32F3xx_HAL_Driver/Src/stm32f3xx_hal_uart_ex.c ****   */
 228:Drivers/STM32F3xx_HAL_Driver/Src/stm32f3xx_hal_uart_ex.c **** 
 229:Drivers/STM32F3xx_HAL_Driver/Src/stm32f3xx_hal_uart_ex.c **** /** @defgroup UARTEx_Exported_Functions_Group2 IO operation functions
 230:Drivers/STM32F3xx_HAL_Driver/Src/stm32f3xx_hal_uart_ex.c ****   *  @brief Extended functions
 231:Drivers/STM32F3xx_HAL_Driver/Src/stm32f3xx_hal_uart_ex.c ****   *
 232:Drivers/STM32F3xx_HAL_Driver/Src/stm32f3xx_hal_uart_ex.c **** @verbatim
 233:Drivers/STM32F3xx_HAL_Driver/Src/stm32f3xx_hal_uart_ex.c ****  ===============================================================================
 234:Drivers/STM32F3xx_HAL_Driver/Src/stm32f3xx_hal_uart_ex.c ****                       ##### IO operation functions #####
 235:Drivers/STM32F3xx_HAL_Driver/Src/stm32f3xx_hal_uart_ex.c ****  ===============================================================================
 236:Drivers/STM32F3xx_HAL_Driver/Src/stm32f3xx_hal_uart_ex.c ****     This subsection provides a set of Wakeup and FIFO mode related callback functions.
 237:Drivers/STM32F3xx_HAL_Driver/Src/stm32f3xx_hal_uart_ex.c **** 
 238:Drivers/STM32F3xx_HAL_Driver/Src/stm32f3xx_hal_uart_ex.c ****     (#) Wakeup from Stop mode Callback:
 239:Drivers/STM32F3xx_HAL_Driver/Src/stm32f3xx_hal_uart_ex.c ****         (+) HAL_UARTEx_WakeupCallback()
 240:Drivers/STM32F3xx_HAL_Driver/Src/stm32f3xx_hal_uart_ex.c **** 
 241:Drivers/STM32F3xx_HAL_Driver/Src/stm32f3xx_hal_uart_ex.c **** @endverbatim
 242:Drivers/STM32F3xx_HAL_Driver/Src/stm32f3xx_hal_uart_ex.c ****   * @{
 243:Drivers/STM32F3xx_HAL_Driver/Src/stm32f3xx_hal_uart_ex.c ****   */
 244:Drivers/STM32F3xx_HAL_Driver/Src/stm32f3xx_hal_uart_ex.c **** 
 245:Drivers/STM32F3xx_HAL_Driver/Src/stm32f3xx_hal_uart_ex.c **** /**
 246:Drivers/STM32F3xx_HAL_Driver/Src/stm32f3xx_hal_uart_ex.c ****   * @brief UART wakeup from Stop mode callback.
 247:Drivers/STM32F3xx_HAL_Driver/Src/stm32f3xx_hal_uart_ex.c ****   * @param huart UART handle.
 248:Drivers/STM32F3xx_HAL_Driver/Src/stm32f3xx_hal_uart_ex.c ****   * @retval None
 249:Drivers/STM32F3xx_HAL_Driver/Src/stm32f3xx_hal_uart_ex.c ****   */
 250:Drivers/STM32F3xx_HAL_Driver/Src/stm32f3xx_hal_uart_ex.c **** __weak void HAL_UARTEx_WakeupCallback(UART_HandleTypeDef *huart)
 251:Drivers/STM32F3xx_HAL_Driver/Src/stm32f3xx_hal_uart_ex.c **** {
 252:Drivers/STM32F3xx_HAL_Driver/Src/stm32f3xx_hal_uart_ex.c ****   /* Prevent unused argument(s) compilation warning */
 253:Drivers/STM32F3xx_HAL_Driver/Src/stm32f3xx_hal_uart_ex.c ****   UNUSED(huart);
 254:Drivers/STM32F3xx_HAL_Driver/Src/stm32f3xx_hal_uart_ex.c **** 
 255:Drivers/STM32F3xx_HAL_Driver/Src/stm32f3xx_hal_uart_ex.c ****   /* NOTE : This function should not be modified, when the callback is needed,
 256:Drivers/STM32F3xx_HAL_Driver/Src/stm32f3xx_hal_uart_ex.c ****             the HAL_UARTEx_WakeupCallback can be implemented in the user file.
 257:Drivers/STM32F3xx_HAL_Driver/Src/stm32f3xx_hal_uart_ex.c ****    */
 258:Drivers/STM32F3xx_HAL_Driver/Src/stm32f3xx_hal_uart_ex.c **** }
ARM GAS  /tmp/ccMIeWgi.s 			page 6


 259:Drivers/STM32F3xx_HAL_Driver/Src/stm32f3xx_hal_uart_ex.c **** 
 260:Drivers/STM32F3xx_HAL_Driver/Src/stm32f3xx_hal_uart_ex.c **** 
 261:Drivers/STM32F3xx_HAL_Driver/Src/stm32f3xx_hal_uart_ex.c **** /**
 262:Drivers/STM32F3xx_HAL_Driver/Src/stm32f3xx_hal_uart_ex.c ****   * @}
 263:Drivers/STM32F3xx_HAL_Driver/Src/stm32f3xx_hal_uart_ex.c ****   */
 264:Drivers/STM32F3xx_HAL_Driver/Src/stm32f3xx_hal_uart_ex.c **** 
 265:Drivers/STM32F3xx_HAL_Driver/Src/stm32f3xx_hal_uart_ex.c **** /** @defgroup UARTEx_Exported_Functions_Group3 Peripheral Control functions
 266:Drivers/STM32F3xx_HAL_Driver/Src/stm32f3xx_hal_uart_ex.c ****   * @brief    Extended Peripheral Control functions
 267:Drivers/STM32F3xx_HAL_Driver/Src/stm32f3xx_hal_uart_ex.c ****   *
 268:Drivers/STM32F3xx_HAL_Driver/Src/stm32f3xx_hal_uart_ex.c **** @verbatim
 269:Drivers/STM32F3xx_HAL_Driver/Src/stm32f3xx_hal_uart_ex.c ****  ===============================================================================
 270:Drivers/STM32F3xx_HAL_Driver/Src/stm32f3xx_hal_uart_ex.c ****                       ##### Peripheral Control functions #####
 271:Drivers/STM32F3xx_HAL_Driver/Src/stm32f3xx_hal_uart_ex.c ****  ===============================================================================
 272:Drivers/STM32F3xx_HAL_Driver/Src/stm32f3xx_hal_uart_ex.c ****     [..] This section provides the following functions:
 273:Drivers/STM32F3xx_HAL_Driver/Src/stm32f3xx_hal_uart_ex.c ****      (+) HAL_MultiProcessorEx_AddressLength_Set() API optionally sets the UART node address
 274:Drivers/STM32F3xx_HAL_Driver/Src/stm32f3xx_hal_uart_ex.c ****          detection length to more than 4 bits for multiprocessor address mark wake up.
 275:Drivers/STM32F3xx_HAL_Driver/Src/stm32f3xx_hal_uart_ex.c ****      (+) HAL_UARTEx_StopModeWakeUpSourceConfig() API defines the wake-up from stop mode
 276:Drivers/STM32F3xx_HAL_Driver/Src/stm32f3xx_hal_uart_ex.c ****          trigger: address match, Start Bit detection or RXNE bit status.
 277:Drivers/STM32F3xx_HAL_Driver/Src/stm32f3xx_hal_uart_ex.c ****      (+) HAL_UARTEx_EnableStopMode() API enables the UART to wake up the MCU from stop mode
 278:Drivers/STM32F3xx_HAL_Driver/Src/stm32f3xx_hal_uart_ex.c ****      (+) HAL_UARTEx_DisableStopMode() API disables the above functionality
 279:Drivers/STM32F3xx_HAL_Driver/Src/stm32f3xx_hal_uart_ex.c **** 
 280:Drivers/STM32F3xx_HAL_Driver/Src/stm32f3xx_hal_uart_ex.c ****     [..] This subsection also provides a set of additional functions providing enhanced reception
 281:Drivers/STM32F3xx_HAL_Driver/Src/stm32f3xx_hal_uart_ex.c ****     services to user. (For example, these functions allow application to handle use cases
 282:Drivers/STM32F3xx_HAL_Driver/Src/stm32f3xx_hal_uart_ex.c ****     where number of data to be received is unknown).
 283:Drivers/STM32F3xx_HAL_Driver/Src/stm32f3xx_hal_uart_ex.c **** 
 284:Drivers/STM32F3xx_HAL_Driver/Src/stm32f3xx_hal_uart_ex.c ****     (#) Compared to standard reception services which only consider number of received
 285:Drivers/STM32F3xx_HAL_Driver/Src/stm32f3xx_hal_uart_ex.c ****         data elements as reception completion criteria, these functions also consider additional ev
 286:Drivers/STM32F3xx_HAL_Driver/Src/stm32f3xx_hal_uart_ex.c ****         as triggers for updating reception status to caller :
 287:Drivers/STM32F3xx_HAL_Driver/Src/stm32f3xx_hal_uart_ex.c ****        (+) Detection of inactivity period (RX line has not been active for a given period).
 288:Drivers/STM32F3xx_HAL_Driver/Src/stm32f3xx_hal_uart_ex.c ****           (++) RX inactivity detected by IDLE event, i.e. RX line has been in idle state (normally 
 289:Drivers/STM32F3xx_HAL_Driver/Src/stm32f3xx_hal_uart_ex.c ****                for 1 frame time, after last received byte.
 290:Drivers/STM32F3xx_HAL_Driver/Src/stm32f3xx_hal_uart_ex.c ****           (++) RX inactivity detected by RTO, i.e. line has been in idle state
 291:Drivers/STM32F3xx_HAL_Driver/Src/stm32f3xx_hal_uart_ex.c ****                for a programmable time, after last received byte.
 292:Drivers/STM32F3xx_HAL_Driver/Src/stm32f3xx_hal_uart_ex.c ****        (+) Detection that a specific character has been received.
 293:Drivers/STM32F3xx_HAL_Driver/Src/stm32f3xx_hal_uart_ex.c **** 
 294:Drivers/STM32F3xx_HAL_Driver/Src/stm32f3xx_hal_uart_ex.c ****     (#) There are two mode of transfer:
 295:Drivers/STM32F3xx_HAL_Driver/Src/stm32f3xx_hal_uart_ex.c ****        (+) Blocking mode: The reception is performed in polling mode, until either expected number 
 296:Drivers/STM32F3xx_HAL_Driver/Src/stm32f3xx_hal_uart_ex.c ****            or till IDLE event occurs. Reception is handled only during function execution.
 297:Drivers/STM32F3xx_HAL_Driver/Src/stm32f3xx_hal_uart_ex.c ****            When function exits, no data reception could occur. HAL status and number of actually re
 298:Drivers/STM32F3xx_HAL_Driver/Src/stm32f3xx_hal_uart_ex.c ****            are returned by function after finishing transfer.
 299:Drivers/STM32F3xx_HAL_Driver/Src/stm32f3xx_hal_uart_ex.c ****        (+) Non-Blocking mode: The reception is performed using Interrupts or DMA.
 300:Drivers/STM32F3xx_HAL_Driver/Src/stm32f3xx_hal_uart_ex.c ****            These API's return the HAL status.
 301:Drivers/STM32F3xx_HAL_Driver/Src/stm32f3xx_hal_uart_ex.c ****            The end of the data processing will be indicated through the
 302:Drivers/STM32F3xx_HAL_Driver/Src/stm32f3xx_hal_uart_ex.c ****            dedicated UART IRQ when using Interrupt mode or the DMA IRQ when using DMA mode.
 303:Drivers/STM32F3xx_HAL_Driver/Src/stm32f3xx_hal_uart_ex.c ****            The HAL_UARTEx_RxEventCallback() user callback will be executed during Receive process
 304:Drivers/STM32F3xx_HAL_Driver/Src/stm32f3xx_hal_uart_ex.c ****            The HAL_UART_ErrorCallback()user callback will be executed when a reception error is det
 305:Drivers/STM32F3xx_HAL_Driver/Src/stm32f3xx_hal_uart_ex.c **** 
 306:Drivers/STM32F3xx_HAL_Driver/Src/stm32f3xx_hal_uart_ex.c ****     (#) Blocking mode API:
 307:Drivers/STM32F3xx_HAL_Driver/Src/stm32f3xx_hal_uart_ex.c ****         (+) HAL_UARTEx_ReceiveToIdle()
 308:Drivers/STM32F3xx_HAL_Driver/Src/stm32f3xx_hal_uart_ex.c **** 
 309:Drivers/STM32F3xx_HAL_Driver/Src/stm32f3xx_hal_uart_ex.c ****     (#) Non-Blocking mode API with Interrupt:
 310:Drivers/STM32F3xx_HAL_Driver/Src/stm32f3xx_hal_uart_ex.c ****         (+) HAL_UARTEx_ReceiveToIdle_IT()
 311:Drivers/STM32F3xx_HAL_Driver/Src/stm32f3xx_hal_uart_ex.c **** 
 312:Drivers/STM32F3xx_HAL_Driver/Src/stm32f3xx_hal_uart_ex.c ****     (#) Non-Blocking mode API with DMA:
 313:Drivers/STM32F3xx_HAL_Driver/Src/stm32f3xx_hal_uart_ex.c ****         (+) HAL_UARTEx_ReceiveToIdle_DMA()
 314:Drivers/STM32F3xx_HAL_Driver/Src/stm32f3xx_hal_uart_ex.c **** 
 315:Drivers/STM32F3xx_HAL_Driver/Src/stm32f3xx_hal_uart_ex.c **** @endverbatim
ARM GAS  /tmp/ccMIeWgi.s 			page 7


 316:Drivers/STM32F3xx_HAL_Driver/Src/stm32f3xx_hal_uart_ex.c ****   * @{
 317:Drivers/STM32F3xx_HAL_Driver/Src/stm32f3xx_hal_uart_ex.c ****   */
 318:Drivers/STM32F3xx_HAL_Driver/Src/stm32f3xx_hal_uart_ex.c **** 
 319:Drivers/STM32F3xx_HAL_Driver/Src/stm32f3xx_hal_uart_ex.c **** /**
 320:Drivers/STM32F3xx_HAL_Driver/Src/stm32f3xx_hal_uart_ex.c ****   * @brief By default in multiprocessor mode, when the wake up method is set
 321:Drivers/STM32F3xx_HAL_Driver/Src/stm32f3xx_hal_uart_ex.c ****   *        to address mark, the UART handles only 4-bit long addresses detection;
 322:Drivers/STM32F3xx_HAL_Driver/Src/stm32f3xx_hal_uart_ex.c ****   *        this API allows to enable longer addresses detection (6-, 7- or 8-bit
 323:Drivers/STM32F3xx_HAL_Driver/Src/stm32f3xx_hal_uart_ex.c ****   *        long).
 324:Drivers/STM32F3xx_HAL_Driver/Src/stm32f3xx_hal_uart_ex.c ****   * @note  Addresses detection lengths are: 6-bit address detection in 7-bit data mode,
 325:Drivers/STM32F3xx_HAL_Driver/Src/stm32f3xx_hal_uart_ex.c ****   *        7-bit address detection in 8-bit data mode, 8-bit address detection in 9-bit data mode.
 326:Drivers/STM32F3xx_HAL_Driver/Src/stm32f3xx_hal_uart_ex.c ****   * @param huart         UART handle.
 327:Drivers/STM32F3xx_HAL_Driver/Src/stm32f3xx_hal_uart_ex.c ****   * @param AddressLength This parameter can be one of the following values:
 328:Drivers/STM32F3xx_HAL_Driver/Src/stm32f3xx_hal_uart_ex.c ****   *          @arg @ref UART_ADDRESS_DETECT_4B 4-bit long address
 329:Drivers/STM32F3xx_HAL_Driver/Src/stm32f3xx_hal_uart_ex.c ****   *          @arg @ref UART_ADDRESS_DETECT_7B 6-, 7- or 8-bit long address
 330:Drivers/STM32F3xx_HAL_Driver/Src/stm32f3xx_hal_uart_ex.c ****   * @retval HAL status
 331:Drivers/STM32F3xx_HAL_Driver/Src/stm32f3xx_hal_uart_ex.c ****   */
 332:Drivers/STM32F3xx_HAL_Driver/Src/stm32f3xx_hal_uart_ex.c **** HAL_StatusTypeDef HAL_MultiProcessorEx_AddressLength_Set(UART_HandleTypeDef *huart, uint32_t Addres
 333:Drivers/STM32F3xx_HAL_Driver/Src/stm32f3xx_hal_uart_ex.c **** {
 334:Drivers/STM32F3xx_HAL_Driver/Src/stm32f3xx_hal_uart_ex.c ****   /* Check the UART handle allocation */
 335:Drivers/STM32F3xx_HAL_Driver/Src/stm32f3xx_hal_uart_ex.c ****   if (huart == NULL)
 336:Drivers/STM32F3xx_HAL_Driver/Src/stm32f3xx_hal_uart_ex.c ****   {
 337:Drivers/STM32F3xx_HAL_Driver/Src/stm32f3xx_hal_uart_ex.c ****     return HAL_ERROR;
 338:Drivers/STM32F3xx_HAL_Driver/Src/stm32f3xx_hal_uart_ex.c ****   }
 339:Drivers/STM32F3xx_HAL_Driver/Src/stm32f3xx_hal_uart_ex.c **** 
 340:Drivers/STM32F3xx_HAL_Driver/Src/stm32f3xx_hal_uart_ex.c ****   /* Check the address length parameter */
 341:Drivers/STM32F3xx_HAL_Driver/Src/stm32f3xx_hal_uart_ex.c ****   assert_param(IS_UART_ADDRESSLENGTH_DETECT(AddressLength));
 342:Drivers/STM32F3xx_HAL_Driver/Src/stm32f3xx_hal_uart_ex.c **** 
 343:Drivers/STM32F3xx_HAL_Driver/Src/stm32f3xx_hal_uart_ex.c ****   huart->gState = HAL_UART_STATE_BUSY;
 344:Drivers/STM32F3xx_HAL_Driver/Src/stm32f3xx_hal_uart_ex.c **** 
 345:Drivers/STM32F3xx_HAL_Driver/Src/stm32f3xx_hal_uart_ex.c ****   /* Disable the Peripheral */
 346:Drivers/STM32F3xx_HAL_Driver/Src/stm32f3xx_hal_uart_ex.c ****   __HAL_UART_DISABLE(huart);
 347:Drivers/STM32F3xx_HAL_Driver/Src/stm32f3xx_hal_uart_ex.c **** 
 348:Drivers/STM32F3xx_HAL_Driver/Src/stm32f3xx_hal_uart_ex.c ****   /* Set the address length */
 349:Drivers/STM32F3xx_HAL_Driver/Src/stm32f3xx_hal_uart_ex.c ****   MODIFY_REG(huart->Instance->CR2, USART_CR2_ADDM7, AddressLength);
 350:Drivers/STM32F3xx_HAL_Driver/Src/stm32f3xx_hal_uart_ex.c **** 
 351:Drivers/STM32F3xx_HAL_Driver/Src/stm32f3xx_hal_uart_ex.c ****   /* Enable the Peripheral */
 352:Drivers/STM32F3xx_HAL_Driver/Src/stm32f3xx_hal_uart_ex.c ****   __HAL_UART_ENABLE(huart);
 353:Drivers/STM32F3xx_HAL_Driver/Src/stm32f3xx_hal_uart_ex.c **** 
 354:Drivers/STM32F3xx_HAL_Driver/Src/stm32f3xx_hal_uart_ex.c ****   /* TEACK and/or REACK to check before moving huart->gState to Ready */
 355:Drivers/STM32F3xx_HAL_Driver/Src/stm32f3xx_hal_uart_ex.c ****   return (UART_CheckIdleState(huart));
 356:Drivers/STM32F3xx_HAL_Driver/Src/stm32f3xx_hal_uart_ex.c **** }
 357:Drivers/STM32F3xx_HAL_Driver/Src/stm32f3xx_hal_uart_ex.c **** 
 358:Drivers/STM32F3xx_HAL_Driver/Src/stm32f3xx_hal_uart_ex.c **** /**
 359:Drivers/STM32F3xx_HAL_Driver/Src/stm32f3xx_hal_uart_ex.c ****   * @brief Set Wakeup from Stop mode interrupt flag selection.
 360:Drivers/STM32F3xx_HAL_Driver/Src/stm32f3xx_hal_uart_ex.c ****   * @note It is the application responsibility to enable the interrupt used as
 361:Drivers/STM32F3xx_HAL_Driver/Src/stm32f3xx_hal_uart_ex.c ****   *       usart_wkup interrupt source before entering low-power mode.
 362:Drivers/STM32F3xx_HAL_Driver/Src/stm32f3xx_hal_uart_ex.c ****   * @param huart           UART handle.
 363:Drivers/STM32F3xx_HAL_Driver/Src/stm32f3xx_hal_uart_ex.c ****   * @param WakeUpSelection Address match, Start Bit detection or RXNE/RXFNE bit status.
 364:Drivers/STM32F3xx_HAL_Driver/Src/stm32f3xx_hal_uart_ex.c ****   *          This parameter can be one of the following values:
 365:Drivers/STM32F3xx_HAL_Driver/Src/stm32f3xx_hal_uart_ex.c ****   *          @arg @ref UART_WAKEUP_ON_ADDRESS
 366:Drivers/STM32F3xx_HAL_Driver/Src/stm32f3xx_hal_uart_ex.c ****   *          @arg @ref UART_WAKEUP_ON_STARTBIT
 367:Drivers/STM32F3xx_HAL_Driver/Src/stm32f3xx_hal_uart_ex.c ****   *          @arg @ref UART_WAKEUP_ON_READDATA_NONEMPTY
 368:Drivers/STM32F3xx_HAL_Driver/Src/stm32f3xx_hal_uart_ex.c ****   * @retval HAL status
 369:Drivers/STM32F3xx_HAL_Driver/Src/stm32f3xx_hal_uart_ex.c ****   */
 370:Drivers/STM32F3xx_HAL_Driver/Src/stm32f3xx_hal_uart_ex.c **** HAL_StatusTypeDef HAL_UARTEx_StopModeWakeUpSourceConfig(UART_HandleTypeDef *huart, UART_WakeUpTypeD
 371:Drivers/STM32F3xx_HAL_Driver/Src/stm32f3xx_hal_uart_ex.c **** {
 372:Drivers/STM32F3xx_HAL_Driver/Src/stm32f3xx_hal_uart_ex.c ****   HAL_StatusTypeDef status = HAL_OK;
ARM GAS  /tmp/ccMIeWgi.s 			page 8


 373:Drivers/STM32F3xx_HAL_Driver/Src/stm32f3xx_hal_uart_ex.c ****   uint32_t tickstart;
 374:Drivers/STM32F3xx_HAL_Driver/Src/stm32f3xx_hal_uart_ex.c **** 
 375:Drivers/STM32F3xx_HAL_Driver/Src/stm32f3xx_hal_uart_ex.c ****   /* check the wake-up from stop mode UART instance */
 376:Drivers/STM32F3xx_HAL_Driver/Src/stm32f3xx_hal_uart_ex.c ****   assert_param(IS_UART_WAKEUP_FROMSTOP_INSTANCE(huart->Instance));
 377:Drivers/STM32F3xx_HAL_Driver/Src/stm32f3xx_hal_uart_ex.c ****   /* check the wake-up selection parameter */
 378:Drivers/STM32F3xx_HAL_Driver/Src/stm32f3xx_hal_uart_ex.c ****   assert_param(IS_UART_WAKEUP_SELECTION(WakeUpSelection.WakeUpEvent));
 379:Drivers/STM32F3xx_HAL_Driver/Src/stm32f3xx_hal_uart_ex.c **** 
 380:Drivers/STM32F3xx_HAL_Driver/Src/stm32f3xx_hal_uart_ex.c ****   /* Process Locked */
 381:Drivers/STM32F3xx_HAL_Driver/Src/stm32f3xx_hal_uart_ex.c ****   __HAL_LOCK(huart);
 382:Drivers/STM32F3xx_HAL_Driver/Src/stm32f3xx_hal_uart_ex.c **** 
 383:Drivers/STM32F3xx_HAL_Driver/Src/stm32f3xx_hal_uart_ex.c ****   huart->gState = HAL_UART_STATE_BUSY;
 384:Drivers/STM32F3xx_HAL_Driver/Src/stm32f3xx_hal_uart_ex.c **** 
 385:Drivers/STM32F3xx_HAL_Driver/Src/stm32f3xx_hal_uart_ex.c ****   /* Disable the Peripheral */
 386:Drivers/STM32F3xx_HAL_Driver/Src/stm32f3xx_hal_uart_ex.c ****   __HAL_UART_DISABLE(huart);
 387:Drivers/STM32F3xx_HAL_Driver/Src/stm32f3xx_hal_uart_ex.c **** 
 388:Drivers/STM32F3xx_HAL_Driver/Src/stm32f3xx_hal_uart_ex.c ****   /* Set the wake-up selection scheme */
 389:Drivers/STM32F3xx_HAL_Driver/Src/stm32f3xx_hal_uart_ex.c ****   MODIFY_REG(huart->Instance->CR3, USART_CR3_WUS, WakeUpSelection.WakeUpEvent);
 390:Drivers/STM32F3xx_HAL_Driver/Src/stm32f3xx_hal_uart_ex.c **** 
 391:Drivers/STM32F3xx_HAL_Driver/Src/stm32f3xx_hal_uart_ex.c ****   if (WakeUpSelection.WakeUpEvent == UART_WAKEUP_ON_ADDRESS)
 392:Drivers/STM32F3xx_HAL_Driver/Src/stm32f3xx_hal_uart_ex.c ****   {
 393:Drivers/STM32F3xx_HAL_Driver/Src/stm32f3xx_hal_uart_ex.c ****     UARTEx_Wakeup_AddressConfig(huart, WakeUpSelection);
 394:Drivers/STM32F3xx_HAL_Driver/Src/stm32f3xx_hal_uart_ex.c ****   }
 395:Drivers/STM32F3xx_HAL_Driver/Src/stm32f3xx_hal_uart_ex.c **** 
 396:Drivers/STM32F3xx_HAL_Driver/Src/stm32f3xx_hal_uart_ex.c ****   /* Enable the Peripheral */
 397:Drivers/STM32F3xx_HAL_Driver/Src/stm32f3xx_hal_uart_ex.c ****   __HAL_UART_ENABLE(huart);
 398:Drivers/STM32F3xx_HAL_Driver/Src/stm32f3xx_hal_uart_ex.c **** 
 399:Drivers/STM32F3xx_HAL_Driver/Src/stm32f3xx_hal_uart_ex.c ****   /* Init tickstart for timeout management */
 400:Drivers/STM32F3xx_HAL_Driver/Src/stm32f3xx_hal_uart_ex.c ****   tickstart = HAL_GetTick();
 401:Drivers/STM32F3xx_HAL_Driver/Src/stm32f3xx_hal_uart_ex.c **** 
 402:Drivers/STM32F3xx_HAL_Driver/Src/stm32f3xx_hal_uart_ex.c ****   /* Wait until REACK flag is set */
 403:Drivers/STM32F3xx_HAL_Driver/Src/stm32f3xx_hal_uart_ex.c ****   if (UART_WaitOnFlagUntilTimeout(huart, USART_ISR_REACK, RESET, tickstart, HAL_UART_TIMEOUT_VALUE)
 404:Drivers/STM32F3xx_HAL_Driver/Src/stm32f3xx_hal_uart_ex.c ****   {
 405:Drivers/STM32F3xx_HAL_Driver/Src/stm32f3xx_hal_uart_ex.c ****     status = HAL_TIMEOUT;
 406:Drivers/STM32F3xx_HAL_Driver/Src/stm32f3xx_hal_uart_ex.c ****   }
 407:Drivers/STM32F3xx_HAL_Driver/Src/stm32f3xx_hal_uart_ex.c ****   else
 408:Drivers/STM32F3xx_HAL_Driver/Src/stm32f3xx_hal_uart_ex.c ****   {
 409:Drivers/STM32F3xx_HAL_Driver/Src/stm32f3xx_hal_uart_ex.c ****     /* Initialize the UART State */
 410:Drivers/STM32F3xx_HAL_Driver/Src/stm32f3xx_hal_uart_ex.c ****     huart->gState = HAL_UART_STATE_READY;
 411:Drivers/STM32F3xx_HAL_Driver/Src/stm32f3xx_hal_uart_ex.c ****   }
 412:Drivers/STM32F3xx_HAL_Driver/Src/stm32f3xx_hal_uart_ex.c **** 
 413:Drivers/STM32F3xx_HAL_Driver/Src/stm32f3xx_hal_uart_ex.c ****   /* Process Unlocked */
 414:Drivers/STM32F3xx_HAL_Driver/Src/stm32f3xx_hal_uart_ex.c ****   __HAL_UNLOCK(huart);
 415:Drivers/STM32F3xx_HAL_Driver/Src/stm32f3xx_hal_uart_ex.c **** 
 416:Drivers/STM32F3xx_HAL_Driver/Src/stm32f3xx_hal_uart_ex.c ****   return status;
 417:Drivers/STM32F3xx_HAL_Driver/Src/stm32f3xx_hal_uart_ex.c **** }
 418:Drivers/STM32F3xx_HAL_Driver/Src/stm32f3xx_hal_uart_ex.c **** 
 419:Drivers/STM32F3xx_HAL_Driver/Src/stm32f3xx_hal_uart_ex.c **** /**
 420:Drivers/STM32F3xx_HAL_Driver/Src/stm32f3xx_hal_uart_ex.c ****   * @brief Enable UART Stop Mode.
 421:Drivers/STM32F3xx_HAL_Driver/Src/stm32f3xx_hal_uart_ex.c ****   * @note The UART is able to wake up the MCU from Stop 1 mode as long as UART clock is HSI or LSE.
 422:Drivers/STM32F3xx_HAL_Driver/Src/stm32f3xx_hal_uart_ex.c ****   * @param huart UART handle.
 423:Drivers/STM32F3xx_HAL_Driver/Src/stm32f3xx_hal_uart_ex.c ****   * @retval HAL status
 424:Drivers/STM32F3xx_HAL_Driver/Src/stm32f3xx_hal_uart_ex.c ****   */
 425:Drivers/STM32F3xx_HAL_Driver/Src/stm32f3xx_hal_uart_ex.c **** HAL_StatusTypeDef HAL_UARTEx_EnableStopMode(UART_HandleTypeDef *huart)
 426:Drivers/STM32F3xx_HAL_Driver/Src/stm32f3xx_hal_uart_ex.c **** {
 427:Drivers/STM32F3xx_HAL_Driver/Src/stm32f3xx_hal_uart_ex.c ****   /* Process Locked */
 428:Drivers/STM32F3xx_HAL_Driver/Src/stm32f3xx_hal_uart_ex.c ****   __HAL_LOCK(huart);
 429:Drivers/STM32F3xx_HAL_Driver/Src/stm32f3xx_hal_uart_ex.c **** 
ARM GAS  /tmp/ccMIeWgi.s 			page 9


 430:Drivers/STM32F3xx_HAL_Driver/Src/stm32f3xx_hal_uart_ex.c ****   /* Set UESM bit */
 431:Drivers/STM32F3xx_HAL_Driver/Src/stm32f3xx_hal_uart_ex.c ****   SET_BIT(huart->Instance->CR1, USART_CR1_UESM);
 432:Drivers/STM32F3xx_HAL_Driver/Src/stm32f3xx_hal_uart_ex.c **** 
 433:Drivers/STM32F3xx_HAL_Driver/Src/stm32f3xx_hal_uart_ex.c ****   /* Process Unlocked */
 434:Drivers/STM32F3xx_HAL_Driver/Src/stm32f3xx_hal_uart_ex.c ****   __HAL_UNLOCK(huart);
 435:Drivers/STM32F3xx_HAL_Driver/Src/stm32f3xx_hal_uart_ex.c **** 
 436:Drivers/STM32F3xx_HAL_Driver/Src/stm32f3xx_hal_uart_ex.c ****   return HAL_OK;
 437:Drivers/STM32F3xx_HAL_Driver/Src/stm32f3xx_hal_uart_ex.c **** }
 438:Drivers/STM32F3xx_HAL_Driver/Src/stm32f3xx_hal_uart_ex.c **** 
 439:Drivers/STM32F3xx_HAL_Driver/Src/stm32f3xx_hal_uart_ex.c **** /**
 440:Drivers/STM32F3xx_HAL_Driver/Src/stm32f3xx_hal_uart_ex.c ****   * @brief Disable UART Stop Mode.
 441:Drivers/STM32F3xx_HAL_Driver/Src/stm32f3xx_hal_uart_ex.c ****   * @param huart UART handle.
 442:Drivers/STM32F3xx_HAL_Driver/Src/stm32f3xx_hal_uart_ex.c ****   * @retval HAL status
 443:Drivers/STM32F3xx_HAL_Driver/Src/stm32f3xx_hal_uart_ex.c ****   */
 444:Drivers/STM32F3xx_HAL_Driver/Src/stm32f3xx_hal_uart_ex.c **** HAL_StatusTypeDef HAL_UARTEx_DisableStopMode(UART_HandleTypeDef *huart)
 445:Drivers/STM32F3xx_HAL_Driver/Src/stm32f3xx_hal_uart_ex.c **** {
 446:Drivers/STM32F3xx_HAL_Driver/Src/stm32f3xx_hal_uart_ex.c ****   /* Process Locked */
 447:Drivers/STM32F3xx_HAL_Driver/Src/stm32f3xx_hal_uart_ex.c ****   __HAL_LOCK(huart);
 448:Drivers/STM32F3xx_HAL_Driver/Src/stm32f3xx_hal_uart_ex.c **** 
 449:Drivers/STM32F3xx_HAL_Driver/Src/stm32f3xx_hal_uart_ex.c ****   /* Clear UESM bit */
 450:Drivers/STM32F3xx_HAL_Driver/Src/stm32f3xx_hal_uart_ex.c ****   CLEAR_BIT(huart->Instance->CR1, USART_CR1_UESM);
 451:Drivers/STM32F3xx_HAL_Driver/Src/stm32f3xx_hal_uart_ex.c **** 
 452:Drivers/STM32F3xx_HAL_Driver/Src/stm32f3xx_hal_uart_ex.c ****   /* Process Unlocked */
 453:Drivers/STM32F3xx_HAL_Driver/Src/stm32f3xx_hal_uart_ex.c ****   __HAL_UNLOCK(huart);
 454:Drivers/STM32F3xx_HAL_Driver/Src/stm32f3xx_hal_uart_ex.c **** 
 455:Drivers/STM32F3xx_HAL_Driver/Src/stm32f3xx_hal_uart_ex.c ****   return HAL_OK;
 456:Drivers/STM32F3xx_HAL_Driver/Src/stm32f3xx_hal_uart_ex.c **** }
 457:Drivers/STM32F3xx_HAL_Driver/Src/stm32f3xx_hal_uart_ex.c **** 
 458:Drivers/STM32F3xx_HAL_Driver/Src/stm32f3xx_hal_uart_ex.c **** /**
 459:Drivers/STM32F3xx_HAL_Driver/Src/stm32f3xx_hal_uart_ex.c ****   * @brief Receive an amount of data in blocking mode till either the expected number of data is re
 460:Drivers/STM32F3xx_HAL_Driver/Src/stm32f3xx_hal_uart_ex.c ****   * @note   HAL_OK is returned if reception is completed (expected number of data has been received
 461:Drivers/STM32F3xx_HAL_Driver/Src/stm32f3xx_hal_uart_ex.c ****   *         or if reception is stopped after IDLE event (less than the expected number of data has 
 462:Drivers/STM32F3xx_HAL_Driver/Src/stm32f3xx_hal_uart_ex.c ****   *         In this case, RxLen output parameter indicates number of data available in reception bu
 463:Drivers/STM32F3xx_HAL_Driver/Src/stm32f3xx_hal_uart_ex.c ****   * @note   When UART parity is not enabled (PCE = 0), and Word Length is configured to 9 bits (M1-
 464:Drivers/STM32F3xx_HAL_Driver/Src/stm32f3xx_hal_uart_ex.c ****   *         the received data is handled as a set of uint16_t. In this case, Size must indicate the
 465:Drivers/STM32F3xx_HAL_Driver/Src/stm32f3xx_hal_uart_ex.c ****   *         of uint16_t available through pData.
 466:Drivers/STM32F3xx_HAL_Driver/Src/stm32f3xx_hal_uart_ex.c ****   * @param huart   UART handle.
 467:Drivers/STM32F3xx_HAL_Driver/Src/stm32f3xx_hal_uart_ex.c ****   * @param pData   Pointer to data buffer (uint8_t or uint16_t data elements).
 468:Drivers/STM32F3xx_HAL_Driver/Src/stm32f3xx_hal_uart_ex.c ****   * @param Size    Amount of data elements (uint8_t or uint16_t) to be received.
 469:Drivers/STM32F3xx_HAL_Driver/Src/stm32f3xx_hal_uart_ex.c ****   * @param RxLen   Number of data elements finally received (could be lower than Size, in case rece
 470:Drivers/STM32F3xx_HAL_Driver/Src/stm32f3xx_hal_uart_ex.c ****   * @param Timeout Timeout duration expressed in ms (covers the whole reception sequence).
 471:Drivers/STM32F3xx_HAL_Driver/Src/stm32f3xx_hal_uart_ex.c ****   * @retval HAL status
 472:Drivers/STM32F3xx_HAL_Driver/Src/stm32f3xx_hal_uart_ex.c ****   */
 473:Drivers/STM32F3xx_HAL_Driver/Src/stm32f3xx_hal_uart_ex.c **** HAL_StatusTypeDef HAL_UARTEx_ReceiveToIdle(UART_HandleTypeDef *huart, uint8_t *pData, uint16_t Size
 474:Drivers/STM32F3xx_HAL_Driver/Src/stm32f3xx_hal_uart_ex.c **** {
 475:Drivers/STM32F3xx_HAL_Driver/Src/stm32f3xx_hal_uart_ex.c ****   uint8_t  *pdata8bits;
 476:Drivers/STM32F3xx_HAL_Driver/Src/stm32f3xx_hal_uart_ex.c ****   uint16_t *pdata16bits;
 477:Drivers/STM32F3xx_HAL_Driver/Src/stm32f3xx_hal_uart_ex.c ****   uint16_t uhMask;
 478:Drivers/STM32F3xx_HAL_Driver/Src/stm32f3xx_hal_uart_ex.c ****   uint32_t tickstart;
 479:Drivers/STM32F3xx_HAL_Driver/Src/stm32f3xx_hal_uart_ex.c **** 
 480:Drivers/STM32F3xx_HAL_Driver/Src/stm32f3xx_hal_uart_ex.c ****   /* Check that a Rx process is not already ongoing */
 481:Drivers/STM32F3xx_HAL_Driver/Src/stm32f3xx_hal_uart_ex.c ****   if (huart->RxState == HAL_UART_STATE_READY)
 482:Drivers/STM32F3xx_HAL_Driver/Src/stm32f3xx_hal_uart_ex.c ****   {
 483:Drivers/STM32F3xx_HAL_Driver/Src/stm32f3xx_hal_uart_ex.c ****     if ((pData == NULL) || (Size == 0U))
 484:Drivers/STM32F3xx_HAL_Driver/Src/stm32f3xx_hal_uart_ex.c ****     {
 485:Drivers/STM32F3xx_HAL_Driver/Src/stm32f3xx_hal_uart_ex.c ****       return  HAL_ERROR;
 486:Drivers/STM32F3xx_HAL_Driver/Src/stm32f3xx_hal_uart_ex.c ****     }
ARM GAS  /tmp/ccMIeWgi.s 			page 10


 487:Drivers/STM32F3xx_HAL_Driver/Src/stm32f3xx_hal_uart_ex.c **** 
 488:Drivers/STM32F3xx_HAL_Driver/Src/stm32f3xx_hal_uart_ex.c ****     __HAL_LOCK(huart);
 489:Drivers/STM32F3xx_HAL_Driver/Src/stm32f3xx_hal_uart_ex.c **** 
 490:Drivers/STM32F3xx_HAL_Driver/Src/stm32f3xx_hal_uart_ex.c ****     huart->ErrorCode = HAL_UART_ERROR_NONE;
 491:Drivers/STM32F3xx_HAL_Driver/Src/stm32f3xx_hal_uart_ex.c ****     huart->RxState = HAL_UART_STATE_BUSY_RX;
 492:Drivers/STM32F3xx_HAL_Driver/Src/stm32f3xx_hal_uart_ex.c ****     huart->ReceptionType = HAL_UART_RECEPTION_TOIDLE;
 493:Drivers/STM32F3xx_HAL_Driver/Src/stm32f3xx_hal_uart_ex.c **** 
 494:Drivers/STM32F3xx_HAL_Driver/Src/stm32f3xx_hal_uart_ex.c ****     /* Init tickstart for timeout management */
 495:Drivers/STM32F3xx_HAL_Driver/Src/stm32f3xx_hal_uart_ex.c ****     tickstart = HAL_GetTick();
 496:Drivers/STM32F3xx_HAL_Driver/Src/stm32f3xx_hal_uart_ex.c **** 
 497:Drivers/STM32F3xx_HAL_Driver/Src/stm32f3xx_hal_uart_ex.c ****     huart->RxXferSize  = Size;
 498:Drivers/STM32F3xx_HAL_Driver/Src/stm32f3xx_hal_uart_ex.c ****     huart->RxXferCount = Size;
 499:Drivers/STM32F3xx_HAL_Driver/Src/stm32f3xx_hal_uart_ex.c **** 
 500:Drivers/STM32F3xx_HAL_Driver/Src/stm32f3xx_hal_uart_ex.c ****     /* Computation of UART mask to apply to RDR register */
 501:Drivers/STM32F3xx_HAL_Driver/Src/stm32f3xx_hal_uart_ex.c ****     UART_MASK_COMPUTATION(huart);
 502:Drivers/STM32F3xx_HAL_Driver/Src/stm32f3xx_hal_uart_ex.c ****     uhMask = huart->Mask;
 503:Drivers/STM32F3xx_HAL_Driver/Src/stm32f3xx_hal_uart_ex.c **** 
 504:Drivers/STM32F3xx_HAL_Driver/Src/stm32f3xx_hal_uart_ex.c ****     /* In case of 9bits/No Parity transfer, pRxData needs to be handled as a uint16_t pointer */
 505:Drivers/STM32F3xx_HAL_Driver/Src/stm32f3xx_hal_uart_ex.c ****     if ((huart->Init.WordLength == UART_WORDLENGTH_9B) && (huart->Init.Parity == UART_PARITY_NONE))
 506:Drivers/STM32F3xx_HAL_Driver/Src/stm32f3xx_hal_uart_ex.c ****     {
 507:Drivers/STM32F3xx_HAL_Driver/Src/stm32f3xx_hal_uart_ex.c ****       pdata8bits  = NULL;
 508:Drivers/STM32F3xx_HAL_Driver/Src/stm32f3xx_hal_uart_ex.c ****       pdata16bits = (uint16_t *) pData;
 509:Drivers/STM32F3xx_HAL_Driver/Src/stm32f3xx_hal_uart_ex.c ****     }
 510:Drivers/STM32F3xx_HAL_Driver/Src/stm32f3xx_hal_uart_ex.c ****     else
 511:Drivers/STM32F3xx_HAL_Driver/Src/stm32f3xx_hal_uart_ex.c ****     {
 512:Drivers/STM32F3xx_HAL_Driver/Src/stm32f3xx_hal_uart_ex.c ****       pdata8bits  = pData;
 513:Drivers/STM32F3xx_HAL_Driver/Src/stm32f3xx_hal_uart_ex.c ****       pdata16bits = NULL;
 514:Drivers/STM32F3xx_HAL_Driver/Src/stm32f3xx_hal_uart_ex.c ****     }
 515:Drivers/STM32F3xx_HAL_Driver/Src/stm32f3xx_hal_uart_ex.c **** 
 516:Drivers/STM32F3xx_HAL_Driver/Src/stm32f3xx_hal_uart_ex.c ****     __HAL_UNLOCK(huart);
 517:Drivers/STM32F3xx_HAL_Driver/Src/stm32f3xx_hal_uart_ex.c **** 
 518:Drivers/STM32F3xx_HAL_Driver/Src/stm32f3xx_hal_uart_ex.c ****     /* Initialize output number of received elements */
 519:Drivers/STM32F3xx_HAL_Driver/Src/stm32f3xx_hal_uart_ex.c ****     *RxLen = 0U;
 520:Drivers/STM32F3xx_HAL_Driver/Src/stm32f3xx_hal_uart_ex.c **** 
 521:Drivers/STM32F3xx_HAL_Driver/Src/stm32f3xx_hal_uart_ex.c ****     /* as long as data have to be received */
 522:Drivers/STM32F3xx_HAL_Driver/Src/stm32f3xx_hal_uart_ex.c ****     while (huart->RxXferCount > 0U)
 523:Drivers/STM32F3xx_HAL_Driver/Src/stm32f3xx_hal_uart_ex.c ****     {
 524:Drivers/STM32F3xx_HAL_Driver/Src/stm32f3xx_hal_uart_ex.c ****       /* Check if IDLE flag is set */
 525:Drivers/STM32F3xx_HAL_Driver/Src/stm32f3xx_hal_uart_ex.c ****       if (__HAL_UART_GET_FLAG(huart, UART_FLAG_IDLE))
 526:Drivers/STM32F3xx_HAL_Driver/Src/stm32f3xx_hal_uart_ex.c ****       {
 527:Drivers/STM32F3xx_HAL_Driver/Src/stm32f3xx_hal_uart_ex.c ****         /* Clear IDLE flag in ISR */
 528:Drivers/STM32F3xx_HAL_Driver/Src/stm32f3xx_hal_uart_ex.c ****         __HAL_UART_CLEAR_FLAG(huart, UART_CLEAR_IDLEF);
 529:Drivers/STM32F3xx_HAL_Driver/Src/stm32f3xx_hal_uart_ex.c **** 
 530:Drivers/STM32F3xx_HAL_Driver/Src/stm32f3xx_hal_uart_ex.c ****         /* If Set, but no data ever received, clear flag without exiting loop */
 531:Drivers/STM32F3xx_HAL_Driver/Src/stm32f3xx_hal_uart_ex.c ****         /* If Set, and data has already been received, this means Idle Event is valid : End recepti
 532:Drivers/STM32F3xx_HAL_Driver/Src/stm32f3xx_hal_uart_ex.c ****         if (*RxLen > 0U)
 533:Drivers/STM32F3xx_HAL_Driver/Src/stm32f3xx_hal_uart_ex.c ****         {
 534:Drivers/STM32F3xx_HAL_Driver/Src/stm32f3xx_hal_uart_ex.c ****           huart->RxState = HAL_UART_STATE_READY;
 535:Drivers/STM32F3xx_HAL_Driver/Src/stm32f3xx_hal_uart_ex.c **** 
 536:Drivers/STM32F3xx_HAL_Driver/Src/stm32f3xx_hal_uart_ex.c ****           return HAL_OK;
 537:Drivers/STM32F3xx_HAL_Driver/Src/stm32f3xx_hal_uart_ex.c ****         }
 538:Drivers/STM32F3xx_HAL_Driver/Src/stm32f3xx_hal_uart_ex.c ****       }
 539:Drivers/STM32F3xx_HAL_Driver/Src/stm32f3xx_hal_uart_ex.c **** 
 540:Drivers/STM32F3xx_HAL_Driver/Src/stm32f3xx_hal_uart_ex.c ****       /* Check if RXNE flag is set */
 541:Drivers/STM32F3xx_HAL_Driver/Src/stm32f3xx_hal_uart_ex.c ****       if (__HAL_UART_GET_FLAG(huart, UART_FLAG_RXNE))
 542:Drivers/STM32F3xx_HAL_Driver/Src/stm32f3xx_hal_uart_ex.c ****       {
 543:Drivers/STM32F3xx_HAL_Driver/Src/stm32f3xx_hal_uart_ex.c ****         if (pdata8bits == NULL)
ARM GAS  /tmp/ccMIeWgi.s 			page 11


 544:Drivers/STM32F3xx_HAL_Driver/Src/stm32f3xx_hal_uart_ex.c ****         {
 545:Drivers/STM32F3xx_HAL_Driver/Src/stm32f3xx_hal_uart_ex.c ****           *pdata16bits = (uint16_t)(huart->Instance->RDR & uhMask);
 546:Drivers/STM32F3xx_HAL_Driver/Src/stm32f3xx_hal_uart_ex.c ****           pdata16bits++;
 547:Drivers/STM32F3xx_HAL_Driver/Src/stm32f3xx_hal_uart_ex.c ****         }
 548:Drivers/STM32F3xx_HAL_Driver/Src/stm32f3xx_hal_uart_ex.c ****         else
 549:Drivers/STM32F3xx_HAL_Driver/Src/stm32f3xx_hal_uart_ex.c ****         {
 550:Drivers/STM32F3xx_HAL_Driver/Src/stm32f3xx_hal_uart_ex.c ****           *pdata8bits = (uint8_t)(huart->Instance->RDR & (uint8_t)uhMask);
 551:Drivers/STM32F3xx_HAL_Driver/Src/stm32f3xx_hal_uart_ex.c ****           pdata8bits++;
 552:Drivers/STM32F3xx_HAL_Driver/Src/stm32f3xx_hal_uart_ex.c ****         }
 553:Drivers/STM32F3xx_HAL_Driver/Src/stm32f3xx_hal_uart_ex.c ****         /* Increment number of received elements */
 554:Drivers/STM32F3xx_HAL_Driver/Src/stm32f3xx_hal_uart_ex.c ****         *RxLen += 1U;
 555:Drivers/STM32F3xx_HAL_Driver/Src/stm32f3xx_hal_uart_ex.c ****         huart->RxXferCount--;
 556:Drivers/STM32F3xx_HAL_Driver/Src/stm32f3xx_hal_uart_ex.c ****       }
 557:Drivers/STM32F3xx_HAL_Driver/Src/stm32f3xx_hal_uart_ex.c **** 
 558:Drivers/STM32F3xx_HAL_Driver/Src/stm32f3xx_hal_uart_ex.c ****       /* Check for the Timeout */
 559:Drivers/STM32F3xx_HAL_Driver/Src/stm32f3xx_hal_uart_ex.c ****       if (Timeout != HAL_MAX_DELAY)
 560:Drivers/STM32F3xx_HAL_Driver/Src/stm32f3xx_hal_uart_ex.c ****       {
 561:Drivers/STM32F3xx_HAL_Driver/Src/stm32f3xx_hal_uart_ex.c ****         if (((HAL_GetTick() - tickstart) > Timeout) || (Timeout == 0U))
 562:Drivers/STM32F3xx_HAL_Driver/Src/stm32f3xx_hal_uart_ex.c ****         {
 563:Drivers/STM32F3xx_HAL_Driver/Src/stm32f3xx_hal_uart_ex.c ****           huart->RxState = HAL_UART_STATE_READY;
 564:Drivers/STM32F3xx_HAL_Driver/Src/stm32f3xx_hal_uart_ex.c **** 
 565:Drivers/STM32F3xx_HAL_Driver/Src/stm32f3xx_hal_uart_ex.c ****           return HAL_TIMEOUT;
 566:Drivers/STM32F3xx_HAL_Driver/Src/stm32f3xx_hal_uart_ex.c ****         }
 567:Drivers/STM32F3xx_HAL_Driver/Src/stm32f3xx_hal_uart_ex.c ****       }
 568:Drivers/STM32F3xx_HAL_Driver/Src/stm32f3xx_hal_uart_ex.c ****     }
 569:Drivers/STM32F3xx_HAL_Driver/Src/stm32f3xx_hal_uart_ex.c **** 
 570:Drivers/STM32F3xx_HAL_Driver/Src/stm32f3xx_hal_uart_ex.c ****     /* Set number of received elements in output parameter : RxLen */
 571:Drivers/STM32F3xx_HAL_Driver/Src/stm32f3xx_hal_uart_ex.c ****     *RxLen = huart->RxXferSize - huart->RxXferCount;
 572:Drivers/STM32F3xx_HAL_Driver/Src/stm32f3xx_hal_uart_ex.c ****     /* At end of Rx process, restore huart->RxState to Ready */
 573:Drivers/STM32F3xx_HAL_Driver/Src/stm32f3xx_hal_uart_ex.c ****     huart->RxState = HAL_UART_STATE_READY;
 574:Drivers/STM32F3xx_HAL_Driver/Src/stm32f3xx_hal_uart_ex.c **** 
 575:Drivers/STM32F3xx_HAL_Driver/Src/stm32f3xx_hal_uart_ex.c ****     return HAL_OK;
 576:Drivers/STM32F3xx_HAL_Driver/Src/stm32f3xx_hal_uart_ex.c ****   }
 577:Drivers/STM32F3xx_HAL_Driver/Src/stm32f3xx_hal_uart_ex.c ****   else
 578:Drivers/STM32F3xx_HAL_Driver/Src/stm32f3xx_hal_uart_ex.c ****   {
 579:Drivers/STM32F3xx_HAL_Driver/Src/stm32f3xx_hal_uart_ex.c ****     return HAL_BUSY;
 580:Drivers/STM32F3xx_HAL_Driver/Src/stm32f3xx_hal_uart_ex.c ****   }
 581:Drivers/STM32F3xx_HAL_Driver/Src/stm32f3xx_hal_uart_ex.c **** }
 582:Drivers/STM32F3xx_HAL_Driver/Src/stm32f3xx_hal_uart_ex.c **** 
 583:Drivers/STM32F3xx_HAL_Driver/Src/stm32f3xx_hal_uart_ex.c **** /**
 584:Drivers/STM32F3xx_HAL_Driver/Src/stm32f3xx_hal_uart_ex.c ****   * @brief Receive an amount of data in interrupt mode till either the expected number of data is r
 585:Drivers/STM32F3xx_HAL_Driver/Src/stm32f3xx_hal_uart_ex.c ****   * @note   Reception is initiated by this function call. Further progress of reception is achieved
 586:Drivers/STM32F3xx_HAL_Driver/Src/stm32f3xx_hal_uart_ex.c ****   *         to UART interrupts raised by RXNE and IDLE events. Callback is called at end of recepti
 587:Drivers/STM32F3xx_HAL_Driver/Src/stm32f3xx_hal_uart_ex.c ****   *         number of received data elements.
 588:Drivers/STM32F3xx_HAL_Driver/Src/stm32f3xx_hal_uart_ex.c ****   * @note   When UART parity is not enabled (PCE = 0), and Word Length is configured to 9 bits (M1-
 589:Drivers/STM32F3xx_HAL_Driver/Src/stm32f3xx_hal_uart_ex.c ****   *         the received data is handled as a set of uint16_t. In this case, Size must indicate the
 590:Drivers/STM32F3xx_HAL_Driver/Src/stm32f3xx_hal_uart_ex.c ****   *         of uint16_t available through pData.
 591:Drivers/STM32F3xx_HAL_Driver/Src/stm32f3xx_hal_uart_ex.c ****   * @param huart UART handle.
 592:Drivers/STM32F3xx_HAL_Driver/Src/stm32f3xx_hal_uart_ex.c ****   * @param pData Pointer to data buffer (uint8_t or uint16_t data elements).
 593:Drivers/STM32F3xx_HAL_Driver/Src/stm32f3xx_hal_uart_ex.c ****   * @param Size  Amount of data elements (uint8_t or uint16_t) to be received.
 594:Drivers/STM32F3xx_HAL_Driver/Src/stm32f3xx_hal_uart_ex.c ****   * @retval HAL status
 595:Drivers/STM32F3xx_HAL_Driver/Src/stm32f3xx_hal_uart_ex.c ****   */
 596:Drivers/STM32F3xx_HAL_Driver/Src/stm32f3xx_hal_uart_ex.c **** HAL_StatusTypeDef HAL_UARTEx_ReceiveToIdle_IT(UART_HandleTypeDef *huart, uint8_t *pData, uint16_t S
 597:Drivers/STM32F3xx_HAL_Driver/Src/stm32f3xx_hal_uart_ex.c **** {
 598:Drivers/STM32F3xx_HAL_Driver/Src/stm32f3xx_hal_uart_ex.c ****   HAL_StatusTypeDef status;
 599:Drivers/STM32F3xx_HAL_Driver/Src/stm32f3xx_hal_uart_ex.c **** 
 600:Drivers/STM32F3xx_HAL_Driver/Src/stm32f3xx_hal_uart_ex.c ****   /* Check that a Rx process is not already ongoing */
ARM GAS  /tmp/ccMIeWgi.s 			page 12


 601:Drivers/STM32F3xx_HAL_Driver/Src/stm32f3xx_hal_uart_ex.c ****   if (huart->RxState == HAL_UART_STATE_READY)
 602:Drivers/STM32F3xx_HAL_Driver/Src/stm32f3xx_hal_uart_ex.c ****   {
 603:Drivers/STM32F3xx_HAL_Driver/Src/stm32f3xx_hal_uart_ex.c ****     if ((pData == NULL) || (Size == 0U))
 604:Drivers/STM32F3xx_HAL_Driver/Src/stm32f3xx_hal_uart_ex.c ****     {
 605:Drivers/STM32F3xx_HAL_Driver/Src/stm32f3xx_hal_uart_ex.c ****       return HAL_ERROR;
 606:Drivers/STM32F3xx_HAL_Driver/Src/stm32f3xx_hal_uart_ex.c ****     }
 607:Drivers/STM32F3xx_HAL_Driver/Src/stm32f3xx_hal_uart_ex.c **** 
 608:Drivers/STM32F3xx_HAL_Driver/Src/stm32f3xx_hal_uart_ex.c ****     __HAL_LOCK(huart);
 609:Drivers/STM32F3xx_HAL_Driver/Src/stm32f3xx_hal_uart_ex.c **** 
 610:Drivers/STM32F3xx_HAL_Driver/Src/stm32f3xx_hal_uart_ex.c ****     /* Set Reception type to reception till IDLE Event*/
 611:Drivers/STM32F3xx_HAL_Driver/Src/stm32f3xx_hal_uart_ex.c ****     huart->ReceptionType = HAL_UART_RECEPTION_TOIDLE;
 612:Drivers/STM32F3xx_HAL_Driver/Src/stm32f3xx_hal_uart_ex.c **** 
 613:Drivers/STM32F3xx_HAL_Driver/Src/stm32f3xx_hal_uart_ex.c ****     status =  UART_Start_Receive_IT(huart, pData, Size);
 614:Drivers/STM32F3xx_HAL_Driver/Src/stm32f3xx_hal_uart_ex.c **** 
 615:Drivers/STM32F3xx_HAL_Driver/Src/stm32f3xx_hal_uart_ex.c ****     /* Check Rx process has been successfully started */
 616:Drivers/STM32F3xx_HAL_Driver/Src/stm32f3xx_hal_uart_ex.c ****     if (status == HAL_OK)
 617:Drivers/STM32F3xx_HAL_Driver/Src/stm32f3xx_hal_uart_ex.c ****     {
 618:Drivers/STM32F3xx_HAL_Driver/Src/stm32f3xx_hal_uart_ex.c ****       if (huart->ReceptionType == HAL_UART_RECEPTION_TOIDLE)
 619:Drivers/STM32F3xx_HAL_Driver/Src/stm32f3xx_hal_uart_ex.c ****       {
 620:Drivers/STM32F3xx_HAL_Driver/Src/stm32f3xx_hal_uart_ex.c ****         __HAL_UART_CLEAR_FLAG(huart, UART_CLEAR_IDLEF);
 621:Drivers/STM32F3xx_HAL_Driver/Src/stm32f3xx_hal_uart_ex.c ****         SET_BIT(huart->Instance->CR1, USART_CR1_IDLEIE);
 622:Drivers/STM32F3xx_HAL_Driver/Src/stm32f3xx_hal_uart_ex.c ****       }
 623:Drivers/STM32F3xx_HAL_Driver/Src/stm32f3xx_hal_uart_ex.c ****       else
 624:Drivers/STM32F3xx_HAL_Driver/Src/stm32f3xx_hal_uart_ex.c ****       {
 625:Drivers/STM32F3xx_HAL_Driver/Src/stm32f3xx_hal_uart_ex.c ****         /* In case of errors already pending when reception is started,
 626:Drivers/STM32F3xx_HAL_Driver/Src/stm32f3xx_hal_uart_ex.c ****            Interrupts may have already been raised and lead to reception abortion.
 627:Drivers/STM32F3xx_HAL_Driver/Src/stm32f3xx_hal_uart_ex.c ****            (Overrun error for instance).
 628:Drivers/STM32F3xx_HAL_Driver/Src/stm32f3xx_hal_uart_ex.c ****            In such case Reception Type has been reset to HAL_UART_RECEPTION_STANDARD. */
 629:Drivers/STM32F3xx_HAL_Driver/Src/stm32f3xx_hal_uart_ex.c ****         status = HAL_ERROR;
 630:Drivers/STM32F3xx_HAL_Driver/Src/stm32f3xx_hal_uart_ex.c ****       }
 631:Drivers/STM32F3xx_HAL_Driver/Src/stm32f3xx_hal_uart_ex.c ****     }
 632:Drivers/STM32F3xx_HAL_Driver/Src/stm32f3xx_hal_uart_ex.c **** 
 633:Drivers/STM32F3xx_HAL_Driver/Src/stm32f3xx_hal_uart_ex.c ****     return status;
 634:Drivers/STM32F3xx_HAL_Driver/Src/stm32f3xx_hal_uart_ex.c ****   }
 635:Drivers/STM32F3xx_HAL_Driver/Src/stm32f3xx_hal_uart_ex.c ****   else
 636:Drivers/STM32F3xx_HAL_Driver/Src/stm32f3xx_hal_uart_ex.c ****   {
 637:Drivers/STM32F3xx_HAL_Driver/Src/stm32f3xx_hal_uart_ex.c ****     return HAL_BUSY;
 638:Drivers/STM32F3xx_HAL_Driver/Src/stm32f3xx_hal_uart_ex.c ****   }
 639:Drivers/STM32F3xx_HAL_Driver/Src/stm32f3xx_hal_uart_ex.c **** }
 640:Drivers/STM32F3xx_HAL_Driver/Src/stm32f3xx_hal_uart_ex.c **** 
 641:Drivers/STM32F3xx_HAL_Driver/Src/stm32f3xx_hal_uart_ex.c **** /**
 642:Drivers/STM32F3xx_HAL_Driver/Src/stm32f3xx_hal_uart_ex.c ****   * @brief Receive an amount of data in DMA mode till either the expected number of data is receive
 643:Drivers/STM32F3xx_HAL_Driver/Src/stm32f3xx_hal_uart_ex.c ****   * @note   Reception is initiated by this function call. Further progress of reception is achieved
 644:Drivers/STM32F3xx_HAL_Driver/Src/stm32f3xx_hal_uart_ex.c ****   *         to DMA services, transferring automatically received data elements in user reception bu
 645:Drivers/STM32F3xx_HAL_Driver/Src/stm32f3xx_hal_uart_ex.c ****   *         calling registered callbacks at half/end of reception. UART IDLE events are also used t
 646:Drivers/STM32F3xx_HAL_Driver/Src/stm32f3xx_hal_uart_ex.c ****   *         reception phase as ended. In all cases, callback execution will indicate number of rece
 647:Drivers/STM32F3xx_HAL_Driver/Src/stm32f3xx_hal_uart_ex.c ****   * @note   When the UART parity is enabled (PCE = 1), the received data contain
 648:Drivers/STM32F3xx_HAL_Driver/Src/stm32f3xx_hal_uart_ex.c ****   *         the parity bit (MSB position).
 649:Drivers/STM32F3xx_HAL_Driver/Src/stm32f3xx_hal_uart_ex.c ****   * @note   When UART parity is not enabled (PCE = 0), and Word Length is configured to 9 bits (M1-
 650:Drivers/STM32F3xx_HAL_Driver/Src/stm32f3xx_hal_uart_ex.c ****   *         the received data is handled as a set of uint16_t. In this case, Size must indicate the
 651:Drivers/STM32F3xx_HAL_Driver/Src/stm32f3xx_hal_uart_ex.c ****   *         of uint16_t available through pData.
 652:Drivers/STM32F3xx_HAL_Driver/Src/stm32f3xx_hal_uart_ex.c ****   * @param huart UART handle.
 653:Drivers/STM32F3xx_HAL_Driver/Src/stm32f3xx_hal_uart_ex.c ****   * @param pData Pointer to data buffer (uint8_t or uint16_t data elements).
 654:Drivers/STM32F3xx_HAL_Driver/Src/stm32f3xx_hal_uart_ex.c ****   * @param Size  Amount of data elements (uint8_t or uint16_t) to be received.
 655:Drivers/STM32F3xx_HAL_Driver/Src/stm32f3xx_hal_uart_ex.c ****   * @retval HAL status
 656:Drivers/STM32F3xx_HAL_Driver/Src/stm32f3xx_hal_uart_ex.c ****   */
 657:Drivers/STM32F3xx_HAL_Driver/Src/stm32f3xx_hal_uart_ex.c **** HAL_StatusTypeDef HAL_UARTEx_ReceiveToIdle_DMA(UART_HandleTypeDef *huart, uint8_t *pData, uint16_t 
ARM GAS  /tmp/ccMIeWgi.s 			page 13


 658:Drivers/STM32F3xx_HAL_Driver/Src/stm32f3xx_hal_uart_ex.c **** {
 659:Drivers/STM32F3xx_HAL_Driver/Src/stm32f3xx_hal_uart_ex.c ****   HAL_StatusTypeDef status;
 660:Drivers/STM32F3xx_HAL_Driver/Src/stm32f3xx_hal_uart_ex.c **** 
 661:Drivers/STM32F3xx_HAL_Driver/Src/stm32f3xx_hal_uart_ex.c ****   /* Check that a Rx process is not already ongoing */
 662:Drivers/STM32F3xx_HAL_Driver/Src/stm32f3xx_hal_uart_ex.c ****   if (huart->RxState == HAL_UART_STATE_READY)
 663:Drivers/STM32F3xx_HAL_Driver/Src/stm32f3xx_hal_uart_ex.c ****   {
 664:Drivers/STM32F3xx_HAL_Driver/Src/stm32f3xx_hal_uart_ex.c ****     if ((pData == NULL) || (Size == 0U))
 665:Drivers/STM32F3xx_HAL_Driver/Src/stm32f3xx_hal_uart_ex.c ****     {
 666:Drivers/STM32F3xx_HAL_Driver/Src/stm32f3xx_hal_uart_ex.c ****       return HAL_ERROR;
 667:Drivers/STM32F3xx_HAL_Driver/Src/stm32f3xx_hal_uart_ex.c ****     }
 668:Drivers/STM32F3xx_HAL_Driver/Src/stm32f3xx_hal_uart_ex.c **** 
 669:Drivers/STM32F3xx_HAL_Driver/Src/stm32f3xx_hal_uart_ex.c ****     __HAL_LOCK(huart);
 670:Drivers/STM32F3xx_HAL_Driver/Src/stm32f3xx_hal_uart_ex.c **** 
 671:Drivers/STM32F3xx_HAL_Driver/Src/stm32f3xx_hal_uart_ex.c ****     /* Set Reception type to reception till IDLE Event*/
 672:Drivers/STM32F3xx_HAL_Driver/Src/stm32f3xx_hal_uart_ex.c ****     huart->ReceptionType = HAL_UART_RECEPTION_TOIDLE;
 673:Drivers/STM32F3xx_HAL_Driver/Src/stm32f3xx_hal_uart_ex.c **** 
 674:Drivers/STM32F3xx_HAL_Driver/Src/stm32f3xx_hal_uart_ex.c ****     status =  UART_Start_Receive_DMA(huart, pData, Size);
 675:Drivers/STM32F3xx_HAL_Driver/Src/stm32f3xx_hal_uart_ex.c **** 
 676:Drivers/STM32F3xx_HAL_Driver/Src/stm32f3xx_hal_uart_ex.c ****     /* Check Rx process has been successfully started */
 677:Drivers/STM32F3xx_HAL_Driver/Src/stm32f3xx_hal_uart_ex.c ****     if (status == HAL_OK)
 678:Drivers/STM32F3xx_HAL_Driver/Src/stm32f3xx_hal_uart_ex.c ****     {
 679:Drivers/STM32F3xx_HAL_Driver/Src/stm32f3xx_hal_uart_ex.c ****       if (huart->ReceptionType == HAL_UART_RECEPTION_TOIDLE)
 680:Drivers/STM32F3xx_HAL_Driver/Src/stm32f3xx_hal_uart_ex.c ****       {
 681:Drivers/STM32F3xx_HAL_Driver/Src/stm32f3xx_hal_uart_ex.c ****         __HAL_UART_CLEAR_FLAG(huart, UART_CLEAR_IDLEF);
 682:Drivers/STM32F3xx_HAL_Driver/Src/stm32f3xx_hal_uart_ex.c ****         SET_BIT(huart->Instance->CR1, USART_CR1_IDLEIE);
 683:Drivers/STM32F3xx_HAL_Driver/Src/stm32f3xx_hal_uart_ex.c ****       }
 684:Drivers/STM32F3xx_HAL_Driver/Src/stm32f3xx_hal_uart_ex.c ****       else
 685:Drivers/STM32F3xx_HAL_Driver/Src/stm32f3xx_hal_uart_ex.c ****       {
 686:Drivers/STM32F3xx_HAL_Driver/Src/stm32f3xx_hal_uart_ex.c ****         /* In case of errors already pending when reception is started,
 687:Drivers/STM32F3xx_HAL_Driver/Src/stm32f3xx_hal_uart_ex.c ****            Interrupts may have already been raised and lead to reception abortion.
 688:Drivers/STM32F3xx_HAL_Driver/Src/stm32f3xx_hal_uart_ex.c ****            (Overrun error for instance).
 689:Drivers/STM32F3xx_HAL_Driver/Src/stm32f3xx_hal_uart_ex.c ****            In such case Reception Type has been reset to HAL_UART_RECEPTION_STANDARD. */
 690:Drivers/STM32F3xx_HAL_Driver/Src/stm32f3xx_hal_uart_ex.c ****         status = HAL_ERROR;
 691:Drivers/STM32F3xx_HAL_Driver/Src/stm32f3xx_hal_uart_ex.c ****       }
 692:Drivers/STM32F3xx_HAL_Driver/Src/stm32f3xx_hal_uart_ex.c ****     }
 693:Drivers/STM32F3xx_HAL_Driver/Src/stm32f3xx_hal_uart_ex.c **** 
 694:Drivers/STM32F3xx_HAL_Driver/Src/stm32f3xx_hal_uart_ex.c ****     return status;
 695:Drivers/STM32F3xx_HAL_Driver/Src/stm32f3xx_hal_uart_ex.c ****   }
 696:Drivers/STM32F3xx_HAL_Driver/Src/stm32f3xx_hal_uart_ex.c ****   else
 697:Drivers/STM32F3xx_HAL_Driver/Src/stm32f3xx_hal_uart_ex.c ****   {
 698:Drivers/STM32F3xx_HAL_Driver/Src/stm32f3xx_hal_uart_ex.c ****     return HAL_BUSY;
 699:Drivers/STM32F3xx_HAL_Driver/Src/stm32f3xx_hal_uart_ex.c ****   }
 700:Drivers/STM32F3xx_HAL_Driver/Src/stm32f3xx_hal_uart_ex.c **** }
 701:Drivers/STM32F3xx_HAL_Driver/Src/stm32f3xx_hal_uart_ex.c **** 
 702:Drivers/STM32F3xx_HAL_Driver/Src/stm32f3xx_hal_uart_ex.c **** /**
 703:Drivers/STM32F3xx_HAL_Driver/Src/stm32f3xx_hal_uart_ex.c ****   * @}
 704:Drivers/STM32F3xx_HAL_Driver/Src/stm32f3xx_hal_uart_ex.c ****   */
 705:Drivers/STM32F3xx_HAL_Driver/Src/stm32f3xx_hal_uart_ex.c **** 
 706:Drivers/STM32F3xx_HAL_Driver/Src/stm32f3xx_hal_uart_ex.c **** /**
 707:Drivers/STM32F3xx_HAL_Driver/Src/stm32f3xx_hal_uart_ex.c ****   * @}
 708:Drivers/STM32F3xx_HAL_Driver/Src/stm32f3xx_hal_uart_ex.c ****   */
 709:Drivers/STM32F3xx_HAL_Driver/Src/stm32f3xx_hal_uart_ex.c **** 
 710:Drivers/STM32F3xx_HAL_Driver/Src/stm32f3xx_hal_uart_ex.c **** /** @addtogroup UARTEx_Private_Functions
 711:Drivers/STM32F3xx_HAL_Driver/Src/stm32f3xx_hal_uart_ex.c ****   * @{
 712:Drivers/STM32F3xx_HAL_Driver/Src/stm32f3xx_hal_uart_ex.c ****   */
 713:Drivers/STM32F3xx_HAL_Driver/Src/stm32f3xx_hal_uart_ex.c **** 
 714:Drivers/STM32F3xx_HAL_Driver/Src/stm32f3xx_hal_uart_ex.c **** /**
ARM GAS  /tmp/ccMIeWgi.s 			page 14


 715:Drivers/STM32F3xx_HAL_Driver/Src/stm32f3xx_hal_uart_ex.c ****   * @brief Initialize the UART wake-up from stop mode parameters when triggered by address detectio
 716:Drivers/STM32F3xx_HAL_Driver/Src/stm32f3xx_hal_uart_ex.c ****   * @param huart           UART handle.
 717:Drivers/STM32F3xx_HAL_Driver/Src/stm32f3xx_hal_uart_ex.c ****   * @param WakeUpSelection UART wake up from stop mode parameters.
 718:Drivers/STM32F3xx_HAL_Driver/Src/stm32f3xx_hal_uart_ex.c ****   * @retval None
 719:Drivers/STM32F3xx_HAL_Driver/Src/stm32f3xx_hal_uart_ex.c ****   */
 720:Drivers/STM32F3xx_HAL_Driver/Src/stm32f3xx_hal_uart_ex.c **** static void UARTEx_Wakeup_AddressConfig(UART_HandleTypeDef *huart, UART_WakeUpTypeDef WakeUpSelecti
 721:Drivers/STM32F3xx_HAL_Driver/Src/stm32f3xx_hal_uart_ex.c **** {
  29              		.loc 1 721 1 view -0
  30              		.cfi_startproc
  31              		@ args = 0, pretend = 0, frame = 8
  32              		@ frame_needed = 0, uses_anonymous_args = 0
  33              		@ link register save eliminated.
  34              		.loc 1 721 1 is_stmt 0 view .LVU1
  35 0000 82B0     		sub	sp, sp, #8
  36              	.LCFI0:
  37              		.cfi_def_cfa_offset 8
  38 0002 02AB     		add	r3, sp, #8
  39 0004 03E90600 		stmdb	r3, {r1, r2}
 722:Drivers/STM32F3xx_HAL_Driver/Src/stm32f3xx_hal_uart_ex.c ****   assert_param(IS_UART_ADDRESSLENGTH_DETECT(WakeUpSelection.AddressLength));
  40              		.loc 1 722 3 is_stmt 1 view .LVU2
 723:Drivers/STM32F3xx_HAL_Driver/Src/stm32f3xx_hal_uart_ex.c **** 
 724:Drivers/STM32F3xx_HAL_Driver/Src/stm32f3xx_hal_uart_ex.c ****   /* Set the USART address length */
 725:Drivers/STM32F3xx_HAL_Driver/Src/stm32f3xx_hal_uart_ex.c ****   MODIFY_REG(huart->Instance->CR2, USART_CR2_ADDM7, WakeUpSelection.AddressLength);
  41              		.loc 1 725 3 view .LVU3
  42 0008 0268     		ldr	r2, [r0]
  43 000a 5368     		ldr	r3, [r2, #4]
  44 000c 23F01003 		bic	r3, r3, #16
  45 0010 BDF80410 		ldrh	r1, [sp, #4]
  46 0014 0B43     		orrs	r3, r3, r1
  47 0016 5360     		str	r3, [r2, #4]
 726:Drivers/STM32F3xx_HAL_Driver/Src/stm32f3xx_hal_uart_ex.c **** 
 727:Drivers/STM32F3xx_HAL_Driver/Src/stm32f3xx_hal_uart_ex.c ****   /* Set the USART address node */
 728:Drivers/STM32F3xx_HAL_Driver/Src/stm32f3xx_hal_uart_ex.c ****   MODIFY_REG(huart->Instance->CR2, USART_CR2_ADD, ((uint32_t)WakeUpSelection.Address << UART_CR2_AD
  48              		.loc 1 728 3 view .LVU4
  49 0018 0268     		ldr	r2, [r0]
  50 001a 5368     		ldr	r3, [r2, #4]
  51 001c 23F07F43 		bic	r3, r3, #-16777216
  52 0020 9DF80610 		ldrb	r1, [sp, #6]	@ zero_extendqisi2
  53 0024 43EA0163 		orr	r3, r3, r1, lsl #24
  54 0028 5360     		str	r3, [r2, #4]
 729:Drivers/STM32F3xx_HAL_Driver/Src/stm32f3xx_hal_uart_ex.c **** }
  55              		.loc 1 729 1 is_stmt 0 view .LVU5
  56 002a 02B0     		add	sp, sp, #8
  57              	.LCFI1:
  58              		.cfi_def_cfa_offset 0
  59              		@ sp needed
  60 002c 7047     		bx	lr
  61              		.cfi_endproc
  62              	.LFE139:
  64              		.section	.text.HAL_RS485Ex_Init,"ax",%progbits
  65              		.align	1
  66              		.global	HAL_RS485Ex_Init
  67              		.syntax unified
  68              		.thumb
  69              		.thumb_func
  70              		.fpu fpv4-sp-d16
  72              	HAL_RS485Ex_Init:
ARM GAS  /tmp/ccMIeWgi.s 			page 15


  73              	.LVL1:
  74              	.LFB130:
 150:Drivers/STM32F3xx_HAL_Driver/Src/stm32f3xx_hal_uart_ex.c ****   uint32_t temp;
  75              		.loc 1 150 1 is_stmt 1 view -0
  76              		.cfi_startproc
  77              		@ args = 0, pretend = 0, frame = 0
  78              		@ frame_needed = 0, uses_anonymous_args = 0
 151:Drivers/STM32F3xx_HAL_Driver/Src/stm32f3xx_hal_uart_ex.c **** 
  79              		.loc 1 151 3 view .LVU7
 154:Drivers/STM32F3xx_HAL_Driver/Src/stm32f3xx_hal_uart_ex.c ****   {
  80              		.loc 1 154 3 view .LVU8
 154:Drivers/STM32F3xx_HAL_Driver/Src/stm32f3xx_hal_uart_ex.c ****   {
  81              		.loc 1 154 6 is_stmt 0 view .LVU9
  82 0000 0028     		cmp	r0, #0
  83 0002 3CD0     		beq	.L7
 150:Drivers/STM32F3xx_HAL_Driver/Src/stm32f3xx_hal_uart_ex.c ****   uint32_t temp;
  84              		.loc 1 150 1 view .LVU10
  85 0004 F8B5     		push	{r3, r4, r5, r6, r7, lr}
  86              	.LCFI2:
  87              		.cfi_def_cfa_offset 24
  88              		.cfi_offset 3, -24
  89              		.cfi_offset 4, -20
  90              		.cfi_offset 5, -16
  91              		.cfi_offset 6, -12
  92              		.cfi_offset 7, -8
  93              		.cfi_offset 14, -4
  94 0006 0F46     		mov	r7, r1
  95 0008 1646     		mov	r6, r2
  96 000a 1D46     		mov	r5, r3
  97 000c 0446     		mov	r4, r0
 159:Drivers/STM32F3xx_HAL_Driver/Src/stm32f3xx_hal_uart_ex.c **** 
  98              		.loc 1 159 3 is_stmt 1 view .LVU11
 162:Drivers/STM32F3xx_HAL_Driver/Src/stm32f3xx_hal_uart_ex.c **** 
  99              		.loc 1 162 3 view .LVU12
 165:Drivers/STM32F3xx_HAL_Driver/Src/stm32f3xx_hal_uart_ex.c **** 
 100              		.loc 1 165 3 view .LVU13
 168:Drivers/STM32F3xx_HAL_Driver/Src/stm32f3xx_hal_uart_ex.c **** 
 101              		.loc 1 168 3 view .LVU14
 170:Drivers/STM32F3xx_HAL_Driver/Src/stm32f3xx_hal_uart_ex.c ****   {
 102              		.loc 1 170 3 view .LVU15
 170:Drivers/STM32F3xx_HAL_Driver/Src/stm32f3xx_hal_uart_ex.c ****   {
 103              		.loc 1 170 12 is_stmt 0 view .LVU16
 104 000e 836F     		ldr	r3, [r0, #120]
 105              	.LVL2:
 170:Drivers/STM32F3xx_HAL_Driver/Src/stm32f3xx_hal_uart_ex.c ****   {
 106              		.loc 1 170 6 view .LVU17
 107 0010 63B3     		cbz	r3, .L12
 108              	.LVL3:
 109              	.L5:
 191:Drivers/STM32F3xx_HAL_Driver/Src/stm32f3xx_hal_uart_ex.c **** 
 110              		.loc 1 191 3 is_stmt 1 view .LVU18
 191:Drivers/STM32F3xx_HAL_Driver/Src/stm32f3xx_hal_uart_ex.c **** 
 111              		.loc 1 191 17 is_stmt 0 view .LVU19
 112 0012 2423     		movs	r3, #36
 113 0014 A367     		str	r3, [r4, #120]
 194:Drivers/STM32F3xx_HAL_Driver/Src/stm32f3xx_hal_uart_ex.c **** 
 114              		.loc 1 194 3 is_stmt 1 view .LVU20
ARM GAS  /tmp/ccMIeWgi.s 			page 16


 115 0016 2268     		ldr	r2, [r4]
 116 0018 1368     		ldr	r3, [r2]
 117 001a 23F00103 		bic	r3, r3, #1
 118 001e 1360     		str	r3, [r2]
 197:Drivers/STM32F3xx_HAL_Driver/Src/stm32f3xx_hal_uart_ex.c ****   {
 119              		.loc 1 197 3 view .LVU21
 197:Drivers/STM32F3xx_HAL_Driver/Src/stm32f3xx_hal_uart_ex.c ****   {
 120              		.loc 1 197 7 is_stmt 0 view .LVU22
 121 0020 2046     		mov	r0, r4
 122 0022 FFF7FEFF 		bl	UART_SetConfig
 123              	.LVL4:
 197:Drivers/STM32F3xx_HAL_Driver/Src/stm32f3xx_hal_uart_ex.c ****   {
 124              		.loc 1 197 6 view .LVU23
 125 0026 0128     		cmp	r0, #1
 126 0028 1FD0     		beq	.L4
 202:Drivers/STM32F3xx_HAL_Driver/Src/stm32f3xx_hal_uart_ex.c ****   {
 127              		.loc 1 202 3 is_stmt 1 view .LVU24
 202:Drivers/STM32F3xx_HAL_Driver/Src/stm32f3xx_hal_uart_ex.c ****   {
 128              		.loc 1 202 26 is_stmt 0 view .LVU25
 129 002a 636A     		ldr	r3, [r4, #36]
 202:Drivers/STM32F3xx_HAL_Driver/Src/stm32f3xx_hal_uart_ex.c ****   {
 130              		.loc 1 202 6 view .LVU26
 131 002c 1BBB     		cbnz	r3, .L13
 132              	.L6:
 208:Drivers/STM32F3xx_HAL_Driver/Src/stm32f3xx_hal_uart_ex.c **** 
 133              		.loc 1 208 3 is_stmt 1 view .LVU27
 134 002e 2268     		ldr	r2, [r4]
 135 0030 9368     		ldr	r3, [r2, #8]
 136 0032 43F48043 		orr	r3, r3, #16384
 137 0036 9360     		str	r3, [r2, #8]
 211:Drivers/STM32F3xx_HAL_Driver/Src/stm32f3xx_hal_uart_ex.c **** 
 138              		.loc 1 211 3 view .LVU28
 139 0038 2268     		ldr	r2, [r4]
 140 003a 9368     		ldr	r3, [r2, #8]
 141 003c 23F40043 		bic	r3, r3, #32768
 142 0040 3B43     		orrs	r3, r3, r7
 143 0042 9360     		str	r3, [r2, #8]
 214:Drivers/STM32F3xx_HAL_Driver/Src/stm32f3xx_hal_uart_ex.c ****   temp |= (DeassertionTime << UART_CR1_DEDT_ADDRESS_LSB_POS);
 144              		.loc 1 214 3 view .LVU29
 145              	.LVL5:
 215:Drivers/STM32F3xx_HAL_Driver/Src/stm32f3xx_hal_uart_ex.c ****   MODIFY_REG(huart->Instance->CR1, (USART_CR1_DEDT | USART_CR1_DEAT), temp);
 146              		.loc 1 215 3 view .LVU30
 215:Drivers/STM32F3xx_HAL_Driver/Src/stm32f3xx_hal_uart_ex.c ****   MODIFY_REG(huart->Instance->CR1, (USART_CR1_DEDT | USART_CR1_DEAT), temp);
 147              		.loc 1 215 28 is_stmt 0 view .LVU31
 148 0044 2904     		lsls	r1, r5, #16
 215:Drivers/STM32F3xx_HAL_Driver/Src/stm32f3xx_hal_uart_ex.c ****   MODIFY_REG(huart->Instance->CR1, (USART_CR1_DEDT | USART_CR1_DEAT), temp);
 149              		.loc 1 215 8 view .LVU32
 150 0046 41EA4652 		orr	r2, r1, r6, lsl #21
 151              	.LVL6:
 216:Drivers/STM32F3xx_HAL_Driver/Src/stm32f3xx_hal_uart_ex.c **** 
 152              		.loc 1 216 3 is_stmt 1 view .LVU33
 153 004a 2368     		ldr	r3, [r4]
 154 004c 1968     		ldr	r1, [r3]
 155 004e 21F07F71 		bic	r1, r1, #66846720
 156 0052 21F44031 		bic	r1, r1, #196608
 157 0056 1143     		orrs	r1, r1, r2
 158 0058 1960     		str	r1, [r3]
ARM GAS  /tmp/ccMIeWgi.s 			page 17


 219:Drivers/STM32F3xx_HAL_Driver/Src/stm32f3xx_hal_uart_ex.c **** 
 159              		.loc 1 219 3 view .LVU34
 160 005a 2268     		ldr	r2, [r4]
 161              	.LVL7:
 219:Drivers/STM32F3xx_HAL_Driver/Src/stm32f3xx_hal_uart_ex.c **** 
 162              		.loc 1 219 3 is_stmt 0 view .LVU35
 163 005c 1368     		ldr	r3, [r2]
 164 005e 43F00103 		orr	r3, r3, #1
 165 0062 1360     		str	r3, [r2]
 222:Drivers/STM32F3xx_HAL_Driver/Src/stm32f3xx_hal_uart_ex.c **** }
 166              		.loc 1 222 3 is_stmt 1 view .LVU36
 222:Drivers/STM32F3xx_HAL_Driver/Src/stm32f3xx_hal_uart_ex.c **** }
 167              		.loc 1 222 11 is_stmt 0 view .LVU37
 168 0064 2046     		mov	r0, r4
 169 0066 FFF7FEFF 		bl	UART_CheckIdleState
 170              	.LVL8:
 171              	.L4:
 223:Drivers/STM32F3xx_HAL_Driver/Src/stm32f3xx_hal_uart_ex.c **** 
 172              		.loc 1 223 1 view .LVU38
 173 006a F8BD     		pop	{r3, r4, r5, r6, r7, pc}
 174              	.LVL9:
 175              	.L12:
 173:Drivers/STM32F3xx_HAL_Driver/Src/stm32f3xx_hal_uart_ex.c **** 
 176              		.loc 1 173 5 is_stmt 1 view .LVU39
 173:Drivers/STM32F3xx_HAL_Driver/Src/stm32f3xx_hal_uart_ex.c **** 
 177              		.loc 1 173 17 is_stmt 0 view .LVU40
 178 006c 80F87430 		strb	r3, [r0, #116]
 187:Drivers/STM32F3xx_HAL_Driver/Src/stm32f3xx_hal_uart_ex.c **** #endif /* (USE_HAL_UART_REGISTER_CALLBACKS) */
 179              		.loc 1 187 5 is_stmt 1 view .LVU41
 180 0070 FFF7FEFF 		bl	HAL_UART_MspInit
 181              	.LVL10:
 187:Drivers/STM32F3xx_HAL_Driver/Src/stm32f3xx_hal_uart_ex.c **** #endif /* (USE_HAL_UART_REGISTER_CALLBACKS) */
 182              		.loc 1 187 5 is_stmt 0 view .LVU42
 183 0074 CDE7     		b	.L5
 184              	.L13:
 204:Drivers/STM32F3xx_HAL_Driver/Src/stm32f3xx_hal_uart_ex.c ****   }
 185              		.loc 1 204 5 is_stmt 1 view .LVU43
 186 0076 2046     		mov	r0, r4
 187 0078 FFF7FEFF 		bl	UART_AdvFeatureConfig
 188              	.LVL11:
 189 007c D7E7     		b	.L6
 190              	.LVL12:
 191              	.L7:
 192              	.LCFI3:
 193              		.cfi_def_cfa_offset 0
 194              		.cfi_restore 3
 195              		.cfi_restore 4
 196              		.cfi_restore 5
 197              		.cfi_restore 6
 198              		.cfi_restore 7
 199              		.cfi_restore 14
 156:Drivers/STM32F3xx_HAL_Driver/Src/stm32f3xx_hal_uart_ex.c ****   }
 200              		.loc 1 156 12 is_stmt 0 view .LVU44
 201 007e 0120     		movs	r0, #1
 202              	.LVL13:
 223:Drivers/STM32F3xx_HAL_Driver/Src/stm32f3xx_hal_uart_ex.c **** 
 203              		.loc 1 223 1 view .LVU45
ARM GAS  /tmp/ccMIeWgi.s 			page 18


 204 0080 7047     		bx	lr
 205              		.cfi_endproc
 206              	.LFE130:
 208              		.section	.text.HAL_UARTEx_WakeupCallback,"ax",%progbits
 209              		.align	1
 210              		.weak	HAL_UARTEx_WakeupCallback
 211              		.syntax unified
 212              		.thumb
 213              		.thumb_func
 214              		.fpu fpv4-sp-d16
 216              	HAL_UARTEx_WakeupCallback:
 217              	.LVL14:
 218              	.LFB131:
 251:Drivers/STM32F3xx_HAL_Driver/Src/stm32f3xx_hal_uart_ex.c ****   /* Prevent unused argument(s) compilation warning */
 219              		.loc 1 251 1 is_stmt 1 view -0
 220              		.cfi_startproc
 221              		@ args = 0, pretend = 0, frame = 0
 222              		@ frame_needed = 0, uses_anonymous_args = 0
 223              		@ link register save eliminated.
 253:Drivers/STM32F3xx_HAL_Driver/Src/stm32f3xx_hal_uart_ex.c **** 
 224              		.loc 1 253 3 view .LVU47
 258:Drivers/STM32F3xx_HAL_Driver/Src/stm32f3xx_hal_uart_ex.c **** 
 225              		.loc 1 258 1 is_stmt 0 view .LVU48
 226 0000 7047     		bx	lr
 227              		.cfi_endproc
 228              	.LFE131:
 230              		.section	.text.HAL_MultiProcessorEx_AddressLength_Set,"ax",%progbits
 231              		.align	1
 232              		.global	HAL_MultiProcessorEx_AddressLength_Set
 233              		.syntax unified
 234              		.thumb
 235              		.thumb_func
 236              		.fpu fpv4-sp-d16
 238              	HAL_MultiProcessorEx_AddressLength_Set:
 239              	.LVL15:
 240              	.LFB132:
 333:Drivers/STM32F3xx_HAL_Driver/Src/stm32f3xx_hal_uart_ex.c ****   /* Check the UART handle allocation */
 241              		.loc 1 333 1 is_stmt 1 view -0
 242              		.cfi_startproc
 243              		@ args = 0, pretend = 0, frame = 0
 244              		@ frame_needed = 0, uses_anonymous_args = 0
 335:Drivers/STM32F3xx_HAL_Driver/Src/stm32f3xx_hal_uart_ex.c ****   {
 245              		.loc 1 335 3 view .LVU50
 335:Drivers/STM32F3xx_HAL_Driver/Src/stm32f3xx_hal_uart_ex.c ****   {
 246              		.loc 1 335 6 is_stmt 0 view .LVU51
 247 0000 B8B1     		cbz	r0, .L17
 333:Drivers/STM32F3xx_HAL_Driver/Src/stm32f3xx_hal_uart_ex.c ****   /* Check the UART handle allocation */
 248              		.loc 1 333 1 view .LVU52
 249 0002 08B5     		push	{r3, lr}
 250              	.LCFI4:
 251              		.cfi_def_cfa_offset 8
 252              		.cfi_offset 3, -8
 253              		.cfi_offset 14, -4
 254 0004 0346     		mov	r3, r0
 341:Drivers/STM32F3xx_HAL_Driver/Src/stm32f3xx_hal_uart_ex.c **** 
 255              		.loc 1 341 3 is_stmt 1 view .LVU53
 343:Drivers/STM32F3xx_HAL_Driver/Src/stm32f3xx_hal_uart_ex.c **** 
ARM GAS  /tmp/ccMIeWgi.s 			page 19


 256              		.loc 1 343 3 view .LVU54
 343:Drivers/STM32F3xx_HAL_Driver/Src/stm32f3xx_hal_uart_ex.c **** 
 257              		.loc 1 343 17 is_stmt 0 view .LVU55
 258 0006 2422     		movs	r2, #36
 259 0008 8267     		str	r2, [r0, #120]
 346:Drivers/STM32F3xx_HAL_Driver/Src/stm32f3xx_hal_uart_ex.c **** 
 260              		.loc 1 346 3 is_stmt 1 view .LVU56
 261 000a 0068     		ldr	r0, [r0]
 262              	.LVL16:
 346:Drivers/STM32F3xx_HAL_Driver/Src/stm32f3xx_hal_uart_ex.c **** 
 263              		.loc 1 346 3 is_stmt 0 view .LVU57
 264 000c 0268     		ldr	r2, [r0]
 265 000e 22F00102 		bic	r2, r2, #1
 266 0012 0260     		str	r2, [r0]
 349:Drivers/STM32F3xx_HAL_Driver/Src/stm32f3xx_hal_uart_ex.c **** 
 267              		.loc 1 349 3 is_stmt 1 view .LVU58
 268 0014 1868     		ldr	r0, [r3]
 269 0016 4268     		ldr	r2, [r0, #4]
 270 0018 22F01002 		bic	r2, r2, #16
 271 001c 1143     		orrs	r1, r1, r2
 272              	.LVL17:
 349:Drivers/STM32F3xx_HAL_Driver/Src/stm32f3xx_hal_uart_ex.c **** 
 273              		.loc 1 349 3 is_stmt 0 view .LVU59
 274 001e 4160     		str	r1, [r0, #4]
 352:Drivers/STM32F3xx_HAL_Driver/Src/stm32f3xx_hal_uart_ex.c **** 
 275              		.loc 1 352 3 is_stmt 1 view .LVU60
 276 0020 1968     		ldr	r1, [r3]
 277 0022 0A68     		ldr	r2, [r1]
 278 0024 42F00102 		orr	r2, r2, #1
 279 0028 0A60     		str	r2, [r1]
 355:Drivers/STM32F3xx_HAL_Driver/Src/stm32f3xx_hal_uart_ex.c **** }
 280              		.loc 1 355 3 view .LVU61
 355:Drivers/STM32F3xx_HAL_Driver/Src/stm32f3xx_hal_uart_ex.c **** }
 281              		.loc 1 355 11 is_stmt 0 view .LVU62
 282 002a 1846     		mov	r0, r3
 283 002c FFF7FEFF 		bl	UART_CheckIdleState
 284              	.LVL18:
 356:Drivers/STM32F3xx_HAL_Driver/Src/stm32f3xx_hal_uart_ex.c **** 
 285              		.loc 1 356 1 view .LVU63
 286 0030 08BD     		pop	{r3, pc}
 287              	.LVL19:
 288              	.L17:
 289              	.LCFI5:
 290              		.cfi_def_cfa_offset 0
 291              		.cfi_restore 3
 292              		.cfi_restore 14
 337:Drivers/STM32F3xx_HAL_Driver/Src/stm32f3xx_hal_uart_ex.c ****   }
 293              		.loc 1 337 12 view .LVU64
 294 0032 0120     		movs	r0, #1
 295              	.LVL20:
 356:Drivers/STM32F3xx_HAL_Driver/Src/stm32f3xx_hal_uart_ex.c **** 
 296              		.loc 1 356 1 view .LVU65
 297 0034 7047     		bx	lr
 298              		.cfi_endproc
 299              	.LFE132:
 301              		.section	.text.HAL_UARTEx_StopModeWakeUpSourceConfig,"ax",%progbits
 302              		.align	1
ARM GAS  /tmp/ccMIeWgi.s 			page 20


 303              		.global	HAL_UARTEx_StopModeWakeUpSourceConfig
 304              		.syntax unified
 305              		.thumb
 306              		.thumb_func
 307              		.fpu fpv4-sp-d16
 309              	HAL_UARTEx_StopModeWakeUpSourceConfig:
 310              	.LVL21:
 311              	.LFB133:
 371:Drivers/STM32F3xx_HAL_Driver/Src/stm32f3xx_hal_uart_ex.c ****   HAL_StatusTypeDef status = HAL_OK;
 312              		.loc 1 371 1 is_stmt 1 view -0
 313              		.cfi_startproc
 314              		@ args = 0, pretend = 0, frame = 8
 315              		@ frame_needed = 0, uses_anonymous_args = 0
 371:Drivers/STM32F3xx_HAL_Driver/Src/stm32f3xx_hal_uart_ex.c ****   HAL_StatusTypeDef status = HAL_OK;
 316              		.loc 1 371 1 is_stmt 0 view .LVU67
 317 0000 10B5     		push	{r4, lr}
 318              	.LCFI6:
 319              		.cfi_def_cfa_offset 8
 320              		.cfi_offset 4, -8
 321              		.cfi_offset 14, -4
 322 0002 84B0     		sub	sp, sp, #16
 323              	.LCFI7:
 324              		.cfi_def_cfa_offset 24
 325 0004 04AB     		add	r3, sp, #16
 326 0006 03E90600 		stmdb	r3, {r1, r2}
 372:Drivers/STM32F3xx_HAL_Driver/Src/stm32f3xx_hal_uart_ex.c ****   uint32_t tickstart;
 327              		.loc 1 372 3 is_stmt 1 view .LVU68
 328              	.LVL22:
 373:Drivers/STM32F3xx_HAL_Driver/Src/stm32f3xx_hal_uart_ex.c **** 
 329              		.loc 1 373 3 view .LVU69
 376:Drivers/STM32F3xx_HAL_Driver/Src/stm32f3xx_hal_uart_ex.c ****   /* check the wake-up selection parameter */
 330              		.loc 1 376 3 view .LVU70
 378:Drivers/STM32F3xx_HAL_Driver/Src/stm32f3xx_hal_uart_ex.c **** 
 331              		.loc 1 378 3 view .LVU71
 381:Drivers/STM32F3xx_HAL_Driver/Src/stm32f3xx_hal_uart_ex.c **** 
 332              		.loc 1 381 3 view .LVU72
 381:Drivers/STM32F3xx_HAL_Driver/Src/stm32f3xx_hal_uart_ex.c **** 
 333              		.loc 1 381 3 view .LVU73
 334 000a 90F87430 		ldrb	r3, [r0, #116]	@ zero_extendqisi2
 335 000e 012B     		cmp	r3, #1
 336 0010 33D0     		beq	.L26
 337 0012 0446     		mov	r4, r0
 381:Drivers/STM32F3xx_HAL_Driver/Src/stm32f3xx_hal_uart_ex.c **** 
 338              		.loc 1 381 3 discriminator 2 view .LVU74
 339 0014 0123     		movs	r3, #1
 340 0016 80F87430 		strb	r3, [r0, #116]
 381:Drivers/STM32F3xx_HAL_Driver/Src/stm32f3xx_hal_uart_ex.c **** 
 341              		.loc 1 381 3 discriminator 2 view .LVU75
 383:Drivers/STM32F3xx_HAL_Driver/Src/stm32f3xx_hal_uart_ex.c **** 
 342              		.loc 1 383 3 discriminator 2 view .LVU76
 383:Drivers/STM32F3xx_HAL_Driver/Src/stm32f3xx_hal_uart_ex.c **** 
 343              		.loc 1 383 17 is_stmt 0 discriminator 2 view .LVU77
 344 001a 2423     		movs	r3, #36
 345 001c 8367     		str	r3, [r0, #120]
 386:Drivers/STM32F3xx_HAL_Driver/Src/stm32f3xx_hal_uart_ex.c **** 
 346              		.loc 1 386 3 is_stmt 1 discriminator 2 view .LVU78
 347 001e 0268     		ldr	r2, [r0]
ARM GAS  /tmp/ccMIeWgi.s 			page 21


 348 0020 1368     		ldr	r3, [r2]
 349 0022 23F00103 		bic	r3, r3, #1
 350 0026 1360     		str	r3, [r2]
 389:Drivers/STM32F3xx_HAL_Driver/Src/stm32f3xx_hal_uart_ex.c **** 
 351              		.loc 1 389 3 discriminator 2 view .LVU79
 352 0028 0168     		ldr	r1, [r0]
 353 002a 8B68     		ldr	r3, [r1, #8]
 354 002c 23F44013 		bic	r3, r3, #3145728
 355 0030 029A     		ldr	r2, [sp, #8]
 356 0032 1343     		orrs	r3, r3, r2
 357 0034 8B60     		str	r3, [r1, #8]
 391:Drivers/STM32F3xx_HAL_Driver/Src/stm32f3xx_hal_uart_ex.c ****   {
 358              		.loc 1 391 3 discriminator 2 view .LVU80
 391:Drivers/STM32F3xx_HAL_Driver/Src/stm32f3xx_hal_uart_ex.c ****   {
 359              		.loc 1 391 6 is_stmt 0 discriminator 2 view .LVU81
 360 0036 A2B1     		cbz	r2, .L29
 361              	.LVL23:
 362              	.L24:
 397:Drivers/STM32F3xx_HAL_Driver/Src/stm32f3xx_hal_uart_ex.c **** 
 363              		.loc 1 397 3 is_stmt 1 view .LVU82
 364 0038 2268     		ldr	r2, [r4]
 365 003a 1368     		ldr	r3, [r2]
 366 003c 43F00103 		orr	r3, r3, #1
 367 0040 1360     		str	r3, [r2]
 400:Drivers/STM32F3xx_HAL_Driver/Src/stm32f3xx_hal_uart_ex.c **** 
 368              		.loc 1 400 3 view .LVU83
 400:Drivers/STM32F3xx_HAL_Driver/Src/stm32f3xx_hal_uart_ex.c **** 
 369              		.loc 1 400 15 is_stmt 0 view .LVU84
 370 0042 FFF7FEFF 		bl	HAL_GetTick
 371              	.LVL24:
 372 0046 0346     		mov	r3, r0
 373              	.LVL25:
 403:Drivers/STM32F3xx_HAL_Driver/Src/stm32f3xx_hal_uart_ex.c ****   {
 374              		.loc 1 403 3 is_stmt 1 view .LVU85
 403:Drivers/STM32F3xx_HAL_Driver/Src/stm32f3xx_hal_uart_ex.c ****   {
 375              		.loc 1 403 7 is_stmt 0 view .LVU86
 376 0048 6FF07E42 		mvn	r2, #-33554432
 377 004c 0092     		str	r2, [sp]
 378 004e 0022     		movs	r2, #0
 379 0050 4FF48001 		mov	r1, #4194304
 380 0054 2046     		mov	r0, r4
 381              	.LVL26:
 403:Drivers/STM32F3xx_HAL_Driver/Src/stm32f3xx_hal_uart_ex.c ****   {
 382              		.loc 1 403 7 view .LVU87
 383 0056 FFF7FEFF 		bl	UART_WaitOnFlagUntilTimeout
 384              	.LVL27:
 403:Drivers/STM32F3xx_HAL_Driver/Src/stm32f3xx_hal_uart_ex.c ****   {
 385              		.loc 1 403 6 view .LVU88
 386 005a 40B9     		cbnz	r0, .L27
 410:Drivers/STM32F3xx_HAL_Driver/Src/stm32f3xx_hal_uart_ex.c ****   }
 387              		.loc 1 410 5 is_stmt 1 view .LVU89
 410:Drivers/STM32F3xx_HAL_Driver/Src/stm32f3xx_hal_uart_ex.c ****   }
 388              		.loc 1 410 19 is_stmt 0 view .LVU90
 389 005c 2023     		movs	r3, #32
 390 005e A367     		str	r3, [r4, #120]
 391 0060 06E0     		b	.L25
 392              	.LVL28:
ARM GAS  /tmp/ccMIeWgi.s 			page 22


 393              	.L29:
 393:Drivers/STM32F3xx_HAL_Driver/Src/stm32f3xx_hal_uart_ex.c ****   }
 394              		.loc 1 393 5 is_stmt 1 view .LVU91
 395 0062 04AB     		add	r3, sp, #16
 396 0064 13E90600 		ldmdb	r3, {r1, r2}
 397 0068 FFF7FEFF 		bl	UARTEx_Wakeup_AddressConfig
 398              	.LVL29:
 393:Drivers/STM32F3xx_HAL_Driver/Src/stm32f3xx_hal_uart_ex.c ****   }
 399              		.loc 1 393 5 is_stmt 0 view .LVU92
 400 006c E4E7     		b	.L24
 401              	.L27:
 405:Drivers/STM32F3xx_HAL_Driver/Src/stm32f3xx_hal_uart_ex.c ****   }
 402              		.loc 1 405 12 view .LVU93
 403 006e 0320     		movs	r0, #3
 404              	.L25:
 405              	.LVL30:
 414:Drivers/STM32F3xx_HAL_Driver/Src/stm32f3xx_hal_uart_ex.c **** 
 406              		.loc 1 414 3 is_stmt 1 view .LVU94
 414:Drivers/STM32F3xx_HAL_Driver/Src/stm32f3xx_hal_uart_ex.c **** 
 407              		.loc 1 414 3 view .LVU95
 408 0070 0023     		movs	r3, #0
 409 0072 84F87430 		strb	r3, [r4, #116]
 414:Drivers/STM32F3xx_HAL_Driver/Src/stm32f3xx_hal_uart_ex.c **** 
 410              		.loc 1 414 3 view .LVU96
 416:Drivers/STM32F3xx_HAL_Driver/Src/stm32f3xx_hal_uart_ex.c **** }
 411              		.loc 1 416 3 view .LVU97
 412              	.LVL31:
 413              	.L23:
 417:Drivers/STM32F3xx_HAL_Driver/Src/stm32f3xx_hal_uart_ex.c **** 
 414              		.loc 1 417 1 is_stmt 0 view .LVU98
 415 0076 04B0     		add	sp, sp, #16
 416              	.LCFI8:
 417              		.cfi_remember_state
 418              		.cfi_def_cfa_offset 8
 419              		@ sp needed
 420 0078 10BD     		pop	{r4, pc}
 421              	.LVL32:
 422              	.L26:
 423              	.LCFI9:
 424              		.cfi_restore_state
 381:Drivers/STM32F3xx_HAL_Driver/Src/stm32f3xx_hal_uart_ex.c **** 
 425              		.loc 1 381 3 view .LVU99
 426 007a 0220     		movs	r0, #2
 427              	.LVL33:
 381:Drivers/STM32F3xx_HAL_Driver/Src/stm32f3xx_hal_uart_ex.c **** 
 428              		.loc 1 381 3 view .LVU100
 429 007c FBE7     		b	.L23
 430              		.cfi_endproc
 431              	.LFE133:
 433              		.section	.text.HAL_UARTEx_EnableStopMode,"ax",%progbits
 434              		.align	1
 435              		.global	HAL_UARTEx_EnableStopMode
 436              		.syntax unified
 437              		.thumb
 438              		.thumb_func
 439              		.fpu fpv4-sp-d16
 441              	HAL_UARTEx_EnableStopMode:
ARM GAS  /tmp/ccMIeWgi.s 			page 23


 442              	.LVL34:
 443              	.LFB134:
 426:Drivers/STM32F3xx_HAL_Driver/Src/stm32f3xx_hal_uart_ex.c ****   /* Process Locked */
 444              		.loc 1 426 1 is_stmt 1 view -0
 445              		.cfi_startproc
 446              		@ args = 0, pretend = 0, frame = 0
 447              		@ frame_needed = 0, uses_anonymous_args = 0
 448              		@ link register save eliminated.
 428:Drivers/STM32F3xx_HAL_Driver/Src/stm32f3xx_hal_uart_ex.c **** 
 449              		.loc 1 428 3 view .LVU102
 428:Drivers/STM32F3xx_HAL_Driver/Src/stm32f3xx_hal_uart_ex.c **** 
 450              		.loc 1 428 3 view .LVU103
 451 0000 90F87430 		ldrb	r3, [r0, #116]	@ zero_extendqisi2
 452 0004 012B     		cmp	r3, #1
 453 0006 0CD0     		beq	.L32
 428:Drivers/STM32F3xx_HAL_Driver/Src/stm32f3xx_hal_uart_ex.c **** 
 454              		.loc 1 428 3 discriminator 2 view .LVU104
 455 0008 0123     		movs	r3, #1
 456 000a 80F87430 		strb	r3, [r0, #116]
 428:Drivers/STM32F3xx_HAL_Driver/Src/stm32f3xx_hal_uart_ex.c **** 
 457              		.loc 1 428 3 discriminator 2 view .LVU105
 431:Drivers/STM32F3xx_HAL_Driver/Src/stm32f3xx_hal_uart_ex.c **** 
 458              		.loc 1 431 3 discriminator 2 view .LVU106
 459 000e 0268     		ldr	r2, [r0]
 460 0010 1368     		ldr	r3, [r2]
 461 0012 43F00203 		orr	r3, r3, #2
 462 0016 1360     		str	r3, [r2]
 434:Drivers/STM32F3xx_HAL_Driver/Src/stm32f3xx_hal_uart_ex.c **** 
 463              		.loc 1 434 3 discriminator 2 view .LVU107
 434:Drivers/STM32F3xx_HAL_Driver/Src/stm32f3xx_hal_uart_ex.c **** 
 464              		.loc 1 434 3 discriminator 2 view .LVU108
 465 0018 0023     		movs	r3, #0
 466 001a 80F87430 		strb	r3, [r0, #116]
 434:Drivers/STM32F3xx_HAL_Driver/Src/stm32f3xx_hal_uart_ex.c **** 
 467              		.loc 1 434 3 discriminator 2 view .LVU109
 436:Drivers/STM32F3xx_HAL_Driver/Src/stm32f3xx_hal_uart_ex.c **** }
 468              		.loc 1 436 3 discriminator 2 view .LVU110
 436:Drivers/STM32F3xx_HAL_Driver/Src/stm32f3xx_hal_uart_ex.c **** }
 469              		.loc 1 436 10 is_stmt 0 discriminator 2 view .LVU111
 470 001e 1846     		mov	r0, r3
 471              	.LVL35:
 436:Drivers/STM32F3xx_HAL_Driver/Src/stm32f3xx_hal_uart_ex.c **** }
 472              		.loc 1 436 10 discriminator 2 view .LVU112
 473 0020 7047     		bx	lr
 474              	.LVL36:
 475              	.L32:
 428:Drivers/STM32F3xx_HAL_Driver/Src/stm32f3xx_hal_uart_ex.c **** 
 476              		.loc 1 428 3 view .LVU113
 477 0022 0220     		movs	r0, #2
 478              	.LVL37:
 437:Drivers/STM32F3xx_HAL_Driver/Src/stm32f3xx_hal_uart_ex.c **** 
 479              		.loc 1 437 1 view .LVU114
 480 0024 7047     		bx	lr
 481              		.cfi_endproc
 482              	.LFE134:
 484              		.section	.text.HAL_UARTEx_DisableStopMode,"ax",%progbits
 485              		.align	1
ARM GAS  /tmp/ccMIeWgi.s 			page 24


 486              		.global	HAL_UARTEx_DisableStopMode
 487              		.syntax unified
 488              		.thumb
 489              		.thumb_func
 490              		.fpu fpv4-sp-d16
 492              	HAL_UARTEx_DisableStopMode:
 493              	.LVL38:
 494              	.LFB135:
 445:Drivers/STM32F3xx_HAL_Driver/Src/stm32f3xx_hal_uart_ex.c ****   /* Process Locked */
 495              		.loc 1 445 1 is_stmt 1 view -0
 496              		.cfi_startproc
 497              		@ args = 0, pretend = 0, frame = 0
 498              		@ frame_needed = 0, uses_anonymous_args = 0
 499              		@ link register save eliminated.
 447:Drivers/STM32F3xx_HAL_Driver/Src/stm32f3xx_hal_uart_ex.c **** 
 500              		.loc 1 447 3 view .LVU116
 447:Drivers/STM32F3xx_HAL_Driver/Src/stm32f3xx_hal_uart_ex.c **** 
 501              		.loc 1 447 3 view .LVU117
 502 0000 90F87430 		ldrb	r3, [r0, #116]	@ zero_extendqisi2
 503 0004 012B     		cmp	r3, #1
 504 0006 0CD0     		beq	.L35
 447:Drivers/STM32F3xx_HAL_Driver/Src/stm32f3xx_hal_uart_ex.c **** 
 505              		.loc 1 447 3 discriminator 2 view .LVU118
 506 0008 0123     		movs	r3, #1
 507 000a 80F87430 		strb	r3, [r0, #116]
 447:Drivers/STM32F3xx_HAL_Driver/Src/stm32f3xx_hal_uart_ex.c **** 
 508              		.loc 1 447 3 discriminator 2 view .LVU119
 450:Drivers/STM32F3xx_HAL_Driver/Src/stm32f3xx_hal_uart_ex.c **** 
 509              		.loc 1 450 3 discriminator 2 view .LVU120
 510 000e 0268     		ldr	r2, [r0]
 511 0010 1368     		ldr	r3, [r2]
 512 0012 23F00203 		bic	r3, r3, #2
 513 0016 1360     		str	r3, [r2]
 453:Drivers/STM32F3xx_HAL_Driver/Src/stm32f3xx_hal_uart_ex.c **** 
 514              		.loc 1 453 3 discriminator 2 view .LVU121
 453:Drivers/STM32F3xx_HAL_Driver/Src/stm32f3xx_hal_uart_ex.c **** 
 515              		.loc 1 453 3 discriminator 2 view .LVU122
 516 0018 0023     		movs	r3, #0
 517 001a 80F87430 		strb	r3, [r0, #116]
 453:Drivers/STM32F3xx_HAL_Driver/Src/stm32f3xx_hal_uart_ex.c **** 
 518              		.loc 1 453 3 discriminator 2 view .LVU123
 455:Drivers/STM32F3xx_HAL_Driver/Src/stm32f3xx_hal_uart_ex.c **** }
 519              		.loc 1 455 3 discriminator 2 view .LVU124
 455:Drivers/STM32F3xx_HAL_Driver/Src/stm32f3xx_hal_uart_ex.c **** }
 520              		.loc 1 455 10 is_stmt 0 discriminator 2 view .LVU125
 521 001e 1846     		mov	r0, r3
 522              	.LVL39:
 455:Drivers/STM32F3xx_HAL_Driver/Src/stm32f3xx_hal_uart_ex.c **** }
 523              		.loc 1 455 10 discriminator 2 view .LVU126
 524 0020 7047     		bx	lr
 525              	.LVL40:
 526              	.L35:
 447:Drivers/STM32F3xx_HAL_Driver/Src/stm32f3xx_hal_uart_ex.c **** 
 527              		.loc 1 447 3 view .LVU127
 528 0022 0220     		movs	r0, #2
 529              	.LVL41:
 456:Drivers/STM32F3xx_HAL_Driver/Src/stm32f3xx_hal_uart_ex.c **** 
ARM GAS  /tmp/ccMIeWgi.s 			page 25


 530              		.loc 1 456 1 view .LVU128
 531 0024 7047     		bx	lr
 532              		.cfi_endproc
 533              	.LFE135:
 535              		.section	.text.HAL_UARTEx_ReceiveToIdle,"ax",%progbits
 536              		.align	1
 537              		.global	HAL_UARTEx_ReceiveToIdle
 538              		.syntax unified
 539              		.thumb
 540              		.thumb_func
 541              		.fpu fpv4-sp-d16
 543              	HAL_UARTEx_ReceiveToIdle:
 544              	.LVL42:
 545              	.LFB136:
 474:Drivers/STM32F3xx_HAL_Driver/Src/stm32f3xx_hal_uart_ex.c ****   uint8_t  *pdata8bits;
 546              		.loc 1 474 1 is_stmt 1 view -0
 547              		.cfi_startproc
 548              		@ args = 4, pretend = 0, frame = 0
 549              		@ frame_needed = 0, uses_anonymous_args = 0
 474:Drivers/STM32F3xx_HAL_Driver/Src/stm32f3xx_hal_uart_ex.c ****   uint8_t  *pdata8bits;
 550              		.loc 1 474 1 is_stmt 0 view .LVU130
 551 0000 2DE9F047 		push	{r4, r5, r6, r7, r8, r9, r10, lr}
 552              	.LCFI10:
 553              		.cfi_def_cfa_offset 32
 554              		.cfi_offset 4, -32
 555              		.cfi_offset 5, -28
 556              		.cfi_offset 6, -24
 557              		.cfi_offset 7, -20
 558              		.cfi_offset 8, -16
 559              		.cfi_offset 9, -12
 560              		.cfi_offset 10, -8
 561              		.cfi_offset 14, -4
 562 0004 1D46     		mov	r5, r3
 563 0006 089E     		ldr	r6, [sp, #32]
 475:Drivers/STM32F3xx_HAL_Driver/Src/stm32f3xx_hal_uart_ex.c ****   uint16_t *pdata16bits;
 564              		.loc 1 475 3 is_stmt 1 view .LVU131
 476:Drivers/STM32F3xx_HAL_Driver/Src/stm32f3xx_hal_uart_ex.c ****   uint16_t uhMask;
 565              		.loc 1 476 3 view .LVU132
 477:Drivers/STM32F3xx_HAL_Driver/Src/stm32f3xx_hal_uart_ex.c ****   uint32_t tickstart;
 566              		.loc 1 477 3 view .LVU133
 478:Drivers/STM32F3xx_HAL_Driver/Src/stm32f3xx_hal_uart_ex.c **** 
 567              		.loc 1 478 3 view .LVU134
 481:Drivers/STM32F3xx_HAL_Driver/Src/stm32f3xx_hal_uart_ex.c ****   {
 568              		.loc 1 481 3 view .LVU135
 481:Drivers/STM32F3xx_HAL_Driver/Src/stm32f3xx_hal_uart_ex.c ****   {
 569              		.loc 1 481 12 is_stmt 0 view .LVU136
 570 0008 C36F     		ldr	r3, [r0, #124]
 571              	.LVL43:
 481:Drivers/STM32F3xx_HAL_Driver/Src/stm32f3xx_hal_uart_ex.c ****   {
 572              		.loc 1 481 6 view .LVU137
 573 000a 202B     		cmp	r3, #32
 574 000c 40F0A580 		bne	.L54
 575 0010 0446     		mov	r4, r0
 576 0012 0F46     		mov	r7, r1
 577 0014 9146     		mov	r9, r2
 483:Drivers/STM32F3xx_HAL_Driver/Src/stm32f3xx_hal_uart_ex.c ****     {
 578              		.loc 1 483 5 is_stmt 1 view .LVU138
ARM GAS  /tmp/ccMIeWgi.s 			page 26


 483:Drivers/STM32F3xx_HAL_Driver/Src/stm32f3xx_hal_uart_ex.c ****     {
 579              		.loc 1 483 8 is_stmt 0 view .LVU139
 580 0016 0029     		cmp	r1, #0
 581 0018 00F0A280 		beq	.L55
 483:Drivers/STM32F3xx_HAL_Driver/Src/stm32f3xx_hal_uart_ex.c ****     {
 582              		.loc 1 483 25 discriminator 1 view .LVU140
 583 001c 002A     		cmp	r2, #0
 584 001e 00F0A180 		beq	.L56
 488:Drivers/STM32F3xx_HAL_Driver/Src/stm32f3xx_hal_uart_ex.c **** 
 585              		.loc 1 488 5 is_stmt 1 view .LVU141
 488:Drivers/STM32F3xx_HAL_Driver/Src/stm32f3xx_hal_uart_ex.c **** 
 586              		.loc 1 488 5 view .LVU142
 587 0022 90F87430 		ldrb	r3, [r0, #116]	@ zero_extendqisi2
 588 0026 012B     		cmp	r3, #1
 589 0028 00F09E80 		beq	.L57
 488:Drivers/STM32F3xx_HAL_Driver/Src/stm32f3xx_hal_uart_ex.c **** 
 590              		.loc 1 488 5 discriminator 2 view .LVU143
 591 002c 0123     		movs	r3, #1
 592 002e 80F87430 		strb	r3, [r0, #116]
 488:Drivers/STM32F3xx_HAL_Driver/Src/stm32f3xx_hal_uart_ex.c **** 
 593              		.loc 1 488 5 discriminator 2 view .LVU144
 490:Drivers/STM32F3xx_HAL_Driver/Src/stm32f3xx_hal_uart_ex.c ****     huart->RxState = HAL_UART_STATE_BUSY_RX;
 594              		.loc 1 490 5 discriminator 2 view .LVU145
 490:Drivers/STM32F3xx_HAL_Driver/Src/stm32f3xx_hal_uart_ex.c ****     huart->RxState = HAL_UART_STATE_BUSY_RX;
 595              		.loc 1 490 22 is_stmt 0 discriminator 2 view .LVU146
 596 0032 0022     		movs	r2, #0
 597              	.LVL44:
 490:Drivers/STM32F3xx_HAL_Driver/Src/stm32f3xx_hal_uart_ex.c ****     huart->RxState = HAL_UART_STATE_BUSY_RX;
 598              		.loc 1 490 22 discriminator 2 view .LVU147
 599 0034 C0F88020 		str	r2, [r0, #128]
 491:Drivers/STM32F3xx_HAL_Driver/Src/stm32f3xx_hal_uart_ex.c ****     huart->ReceptionType = HAL_UART_RECEPTION_TOIDLE;
 600              		.loc 1 491 5 is_stmt 1 discriminator 2 view .LVU148
 491:Drivers/STM32F3xx_HAL_Driver/Src/stm32f3xx_hal_uart_ex.c ****     huart->ReceptionType = HAL_UART_RECEPTION_TOIDLE;
 601              		.loc 1 491 20 is_stmt 0 discriminator 2 view .LVU149
 602 0038 2222     		movs	r2, #34
 603 003a C267     		str	r2, [r0, #124]
 492:Drivers/STM32F3xx_HAL_Driver/Src/stm32f3xx_hal_uart_ex.c **** 
 604              		.loc 1 492 5 is_stmt 1 discriminator 2 view .LVU150
 492:Drivers/STM32F3xx_HAL_Driver/Src/stm32f3xx_hal_uart_ex.c **** 
 605              		.loc 1 492 26 is_stmt 0 discriminator 2 view .LVU151
 606 003c 0366     		str	r3, [r0, #96]
 495:Drivers/STM32F3xx_HAL_Driver/Src/stm32f3xx_hal_uart_ex.c **** 
 607              		.loc 1 495 5 is_stmt 1 discriminator 2 view .LVU152
 495:Drivers/STM32F3xx_HAL_Driver/Src/stm32f3xx_hal_uart_ex.c **** 
 608              		.loc 1 495 17 is_stmt 0 discriminator 2 view .LVU153
 609 003e FFF7FEFF 		bl	HAL_GetTick
 610              	.LVL45:
 495:Drivers/STM32F3xx_HAL_Driver/Src/stm32f3xx_hal_uart_ex.c **** 
 611              		.loc 1 495 17 discriminator 2 view .LVU154
 612 0042 8046     		mov	r8, r0
 613              	.LVL46:
 497:Drivers/STM32F3xx_HAL_Driver/Src/stm32f3xx_hal_uart_ex.c ****     huart->RxXferCount = Size;
 614              		.loc 1 497 5 is_stmt 1 discriminator 2 view .LVU155
 497:Drivers/STM32F3xx_HAL_Driver/Src/stm32f3xx_hal_uart_ex.c ****     huart->RxXferCount = Size;
 615              		.loc 1 497 24 is_stmt 0 discriminator 2 view .LVU156
 616 0044 A4F85890 		strh	r9, [r4, #88]	@ movhi
 498:Drivers/STM32F3xx_HAL_Driver/Src/stm32f3xx_hal_uart_ex.c **** 
ARM GAS  /tmp/ccMIeWgi.s 			page 27


 617              		.loc 1 498 5 is_stmt 1 discriminator 2 view .LVU157
 498:Drivers/STM32F3xx_HAL_Driver/Src/stm32f3xx_hal_uart_ex.c **** 
 618              		.loc 1 498 24 is_stmt 0 discriminator 2 view .LVU158
 619 0048 A4F85A90 		strh	r9, [r4, #90]	@ movhi
 501:Drivers/STM32F3xx_HAL_Driver/Src/stm32f3xx_hal_uart_ex.c ****     uhMask = huart->Mask;
 620              		.loc 1 501 5 is_stmt 1 discriminator 2 view .LVU159
 501:Drivers/STM32F3xx_HAL_Driver/Src/stm32f3xx_hal_uart_ex.c ****     uhMask = huart->Mask;
 621              		.loc 1 501 5 discriminator 2 view .LVU160
 622 004c A368     		ldr	r3, [r4, #8]
 623 004e B3F5805F 		cmp	r3, #4096
 624 0052 06D0     		beq	.L61
 501:Drivers/STM32F3xx_HAL_Driver/Src/stm32f3xx_hal_uart_ex.c ****     uhMask = huart->Mask;
 625              		.loc 1 501 5 discriminator 2 view .LVU161
 626 0054 A3B9     		cbnz	r3, .L41
 501:Drivers/STM32F3xx_HAL_Driver/Src/stm32f3xx_hal_uart_ex.c ****     uhMask = huart->Mask;
 627              		.loc 1 501 5 discriminator 5 view .LVU162
 628 0056 2269     		ldr	r2, [r4, #16]
 629 0058 72B9     		cbnz	r2, .L42
 501:Drivers/STM32F3xx_HAL_Driver/Src/stm32f3xx_hal_uart_ex.c ****     uhMask = huart->Mask;
 630              		.loc 1 501 5 discriminator 7 view .LVU163
 631 005a FF22     		movs	r2, #255
 632 005c A4F85C20 		strh	r2, [r4, #92]	@ movhi
 633 0060 14E0     		b	.L40
 634              	.L61:
 501:Drivers/STM32F3xx_HAL_Driver/Src/stm32f3xx_hal_uart_ex.c ****     uhMask = huart->Mask;
 635              		.loc 1 501 5 discriminator 1 view .LVU164
 636 0062 2269     		ldr	r2, [r4, #16]
 637 0064 22B9     		cbnz	r2, .L39
 501:Drivers/STM32F3xx_HAL_Driver/Src/stm32f3xx_hal_uart_ex.c ****     uhMask = huart->Mask;
 638              		.loc 1 501 5 discriminator 3 view .LVU165
 639 0066 40F2FF12 		movw	r2, #511
 640 006a A4F85C20 		strh	r2, [r4, #92]	@ movhi
 641 006e 0DE0     		b	.L40
 642              	.L39:
 501:Drivers/STM32F3xx_HAL_Driver/Src/stm32f3xx_hal_uart_ex.c ****     uhMask = huart->Mask;
 643              		.loc 1 501 5 discriminator 4 view .LVU166
 644 0070 FF22     		movs	r2, #255
 645 0072 A4F85C20 		strh	r2, [r4, #92]	@ movhi
 646 0076 09E0     		b	.L40
 647              	.L42:
 501:Drivers/STM32F3xx_HAL_Driver/Src/stm32f3xx_hal_uart_ex.c ****     uhMask = huart->Mask;
 648              		.loc 1 501 5 discriminator 8 view .LVU167
 649 0078 7F22     		movs	r2, #127
 650 007a A4F85C20 		strh	r2, [r4, #92]	@ movhi
 651 007e 05E0     		b	.L40
 652              	.L41:
 501:Drivers/STM32F3xx_HAL_Driver/Src/stm32f3xx_hal_uart_ex.c ****     uhMask = huart->Mask;
 653              		.loc 1 501 5 discriminator 6 view .LVU168
 654 0080 B3F1805F 		cmp	r3, #268435456
 655 0084 0ED0     		beq	.L62
 501:Drivers/STM32F3xx_HAL_Driver/Src/stm32f3xx_hal_uart_ex.c ****     uhMask = huart->Mask;
 656              		.loc 1 501 5 discriminator 10 view .LVU169
 657 0086 0022     		movs	r2, #0
 658 0088 A4F85C20 		strh	r2, [r4, #92]	@ movhi
 659              	.L40:
 501:Drivers/STM32F3xx_HAL_Driver/Src/stm32f3xx_hal_uart_ex.c ****     uhMask = huart->Mask;
 660              		.loc 1 501 5 discriminator 13 view .LVU170
ARM GAS  /tmp/ccMIeWgi.s 			page 28


 502:Drivers/STM32F3xx_HAL_Driver/Src/stm32f3xx_hal_uart_ex.c **** 
 661              		.loc 1 502 5 discriminator 13 view .LVU171
 502:Drivers/STM32F3xx_HAL_Driver/Src/stm32f3xx_hal_uart_ex.c **** 
 662              		.loc 1 502 12 is_stmt 0 discriminator 13 view .LVU172
 663 008c B4F85C90 		ldrh	r9, [r4, #92]
 664              	.LVL47:
 505:Drivers/STM32F3xx_HAL_Driver/Src/stm32f3xx_hal_uart_ex.c ****     {
 665              		.loc 1 505 5 is_stmt 1 discriminator 13 view .LVU173
 505:Drivers/STM32F3xx_HAL_Driver/Src/stm32f3xx_hal_uart_ex.c ****     {
 666              		.loc 1 505 8 is_stmt 0 discriminator 13 view .LVU174
 667 0090 B3F5805F 		cmp	r3, #4096
 668 0094 10D0     		beq	.L63
 513:Drivers/STM32F3xx_HAL_Driver/Src/stm32f3xx_hal_uart_ex.c ****     }
 669              		.loc 1 513 19 view .LVU175
 670 0096 4FF0000A 		mov	r10, #0
 671              	.LVL48:
 672              	.L45:
 516:Drivers/STM32F3xx_HAL_Driver/Src/stm32f3xx_hal_uart_ex.c **** 
 673              		.loc 1 516 5 is_stmt 1 view .LVU176
 516:Drivers/STM32F3xx_HAL_Driver/Src/stm32f3xx_hal_uart_ex.c **** 
 674              		.loc 1 516 5 view .LVU177
 675 009a 0023     		movs	r3, #0
 676 009c 84F87430 		strb	r3, [r4, #116]
 516:Drivers/STM32F3xx_HAL_Driver/Src/stm32f3xx_hal_uart_ex.c **** 
 677              		.loc 1 516 5 view .LVU178
 519:Drivers/STM32F3xx_HAL_Driver/Src/stm32f3xx_hal_uart_ex.c **** 
 678              		.loc 1 519 5 view .LVU179
 519:Drivers/STM32F3xx_HAL_Driver/Src/stm32f3xx_hal_uart_ex.c **** 
 679              		.loc 1 519 12 is_stmt 0 view .LVU180
 680 00a0 2B80     		strh	r3, [r5]	@ movhi
 522:Drivers/STM32F3xx_HAL_Driver/Src/stm32f3xx_hal_uart_ex.c ****     {
 681              		.loc 1 522 5 is_stmt 1 view .LVU181
 522:Drivers/STM32F3xx_HAL_Driver/Src/stm32f3xx_hal_uart_ex.c ****     {
 682              		.loc 1 522 11 is_stmt 0 view .LVU182
 683 00a2 27E0     		b	.L46
 684              	.LVL49:
 685              	.L62:
 501:Drivers/STM32F3xx_HAL_Driver/Src/stm32f3xx_hal_uart_ex.c ****     uhMask = huart->Mask;
 686              		.loc 1 501 5 is_stmt 1 discriminator 9 view .LVU183
 687 00a4 2269     		ldr	r2, [r4, #16]
 688 00a6 1AB9     		cbnz	r2, .L44
 501:Drivers/STM32F3xx_HAL_Driver/Src/stm32f3xx_hal_uart_ex.c ****     uhMask = huart->Mask;
 689              		.loc 1 501 5 discriminator 11 view .LVU184
 690 00a8 7F22     		movs	r2, #127
 691 00aa A4F85C20 		strh	r2, [r4, #92]	@ movhi
 692 00ae EDE7     		b	.L40
 693              	.L44:
 501:Drivers/STM32F3xx_HAL_Driver/Src/stm32f3xx_hal_uart_ex.c ****     uhMask = huart->Mask;
 694              		.loc 1 501 5 discriminator 12 view .LVU185
 695 00b0 3F22     		movs	r2, #63
 696 00b2 A4F85C20 		strh	r2, [r4, #92]	@ movhi
 697 00b6 E9E7     		b	.L40
 698              	.LVL50:
 699              	.L63:
 505:Drivers/STM32F3xx_HAL_Driver/Src/stm32f3xx_hal_uart_ex.c ****     {
 700              		.loc 1 505 71 is_stmt 0 discriminator 1 view .LVU186
 701 00b8 2369     		ldr	r3, [r4, #16]
ARM GAS  /tmp/ccMIeWgi.s 			page 29


 505:Drivers/STM32F3xx_HAL_Driver/Src/stm32f3xx_hal_uart_ex.c ****     {
 702              		.loc 1 505 56 discriminator 1 view .LVU187
 703 00ba 13B1     		cbz	r3, .L59
 513:Drivers/STM32F3xx_HAL_Driver/Src/stm32f3xx_hal_uart_ex.c ****     }
 704              		.loc 1 513 19 view .LVU188
 705 00bc 4FF0000A 		mov	r10, #0
 706 00c0 EBE7     		b	.L45
 707              	.L59:
 508:Drivers/STM32F3xx_HAL_Driver/Src/stm32f3xx_hal_uart_ex.c ****     }
 708              		.loc 1 508 19 view .LVU189
 709 00c2 BA46     		mov	r10, r7
 507:Drivers/STM32F3xx_HAL_Driver/Src/stm32f3xx_hal_uart_ex.c ****       pdata16bits = (uint16_t *) pData;
 710              		.loc 1 507 19 view .LVU190
 711 00c4 0027     		movs	r7, #0
 712              	.LVL51:
 507:Drivers/STM32F3xx_HAL_Driver/Src/stm32f3xx_hal_uart_ex.c ****       pdata16bits = (uint16_t *) pData;
 713              		.loc 1 507 19 view .LVU191
 714 00c6 E8E7     		b	.L45
 715              	.LVL52:
 716              	.L66:
 534:Drivers/STM32F3xx_HAL_Driver/Src/stm32f3xx_hal_uart_ex.c **** 
 717              		.loc 1 534 11 is_stmt 1 view .LVU192
 534:Drivers/STM32F3xx_HAL_Driver/Src/stm32f3xx_hal_uart_ex.c **** 
 718              		.loc 1 534 26 is_stmt 0 view .LVU193
 719 00c8 2023     		movs	r3, #32
 720 00ca E367     		str	r3, [r4, #124]
 536:Drivers/STM32F3xx_HAL_Driver/Src/stm32f3xx_hal_uart_ex.c ****         }
 721              		.loc 1 536 11 is_stmt 1 view .LVU194
 536:Drivers/STM32F3xx_HAL_Driver/Src/stm32f3xx_hal_uart_ex.c ****         }
 722              		.loc 1 536 18 is_stmt 0 view .LVU195
 723 00cc 0020     		movs	r0, #0
 724 00ce 45E0     		b	.L37
 725              	.L67:
 545:Drivers/STM32F3xx_HAL_Driver/Src/stm32f3xx_hal_uart_ex.c ****           pdata16bits++;
 726              		.loc 1 545 11 is_stmt 1 view .LVU196
 545:Drivers/STM32F3xx_HAL_Driver/Src/stm32f3xx_hal_uart_ex.c ****           pdata16bits++;
 727              		.loc 1 545 52 is_stmt 0 view .LVU197
 728 00d0 9B8C     		ldrh	r3, [r3, #36]
 545:Drivers/STM32F3xx_HAL_Driver/Src/stm32f3xx_hal_uart_ex.c ****           pdata16bits++;
 729              		.loc 1 545 26 view .LVU198
 730 00d2 09EA0303 		and	r3, r9, r3
 545:Drivers/STM32F3xx_HAL_Driver/Src/stm32f3xx_hal_uart_ex.c ****           pdata16bits++;
 731              		.loc 1 545 24 view .LVU199
 732 00d6 2AF8023B 		strh	r3, [r10], #2	@ movhi
 733              	.LVL53:
 546:Drivers/STM32F3xx_HAL_Driver/Src/stm32f3xx_hal_uart_ex.c ****         }
 734              		.loc 1 546 11 is_stmt 1 view .LVU200
 735              	.L50:
 554:Drivers/STM32F3xx_HAL_Driver/Src/stm32f3xx_hal_uart_ex.c ****         huart->RxXferCount--;
 736              		.loc 1 554 9 view .LVU201
 554:Drivers/STM32F3xx_HAL_Driver/Src/stm32f3xx_hal_uart_ex.c ****         huart->RxXferCount--;
 737              		.loc 1 554 16 is_stmt 0 view .LVU202
 738 00da 2B88     		ldrh	r3, [r5]
 739 00dc 0133     		adds	r3, r3, #1
 740 00de 2B80     		strh	r3, [r5]	@ movhi
 555:Drivers/STM32F3xx_HAL_Driver/Src/stm32f3xx_hal_uart_ex.c ****       }
 741              		.loc 1 555 9 is_stmt 1 view .LVU203
ARM GAS  /tmp/ccMIeWgi.s 			page 30


 555:Drivers/STM32F3xx_HAL_Driver/Src/stm32f3xx_hal_uart_ex.c ****       }
 742              		.loc 1 555 14 is_stmt 0 view .LVU204
 743 00e0 B4F85A30 		ldrh	r3, [r4, #90]
 744 00e4 9BB2     		uxth	r3, r3
 555:Drivers/STM32F3xx_HAL_Driver/Src/stm32f3xx_hal_uart_ex.c ****       }
 745              		.loc 1 555 27 view .LVU205
 746 00e6 013B     		subs	r3, r3, #1
 747 00e8 9BB2     		uxth	r3, r3
 748 00ea A4F85A30 		strh	r3, [r4, #90]	@ movhi
 749              	.L48:
 559:Drivers/STM32F3xx_HAL_Driver/Src/stm32f3xx_hal_uart_ex.c ****       {
 750              		.loc 1 559 7 is_stmt 1 view .LVU206
 559:Drivers/STM32F3xx_HAL_Driver/Src/stm32f3xx_hal_uart_ex.c ****       {
 751              		.loc 1 559 10 is_stmt 0 view .LVU207
 752 00ee B6F1FF3F 		cmp	r6, #-1
 753 00f2 1BD1     		bne	.L64
 754              	.L46:
 522:Drivers/STM32F3xx_HAL_Driver/Src/stm32f3xx_hal_uart_ex.c ****     {
 755              		.loc 1 522 11 is_stmt 1 view .LVU208
 522:Drivers/STM32F3xx_HAL_Driver/Src/stm32f3xx_hal_uart_ex.c ****     {
 756              		.loc 1 522 17 is_stmt 0 view .LVU209
 757 00f4 B4F85A20 		ldrh	r2, [r4, #90]
 758 00f8 92B2     		uxth	r2, r2
 522:Drivers/STM32F3xx_HAL_Driver/Src/stm32f3xx_hal_uart_ex.c ****     {
 759              		.loc 1 522 11 view .LVU210
 760 00fa 1AB3     		cbz	r2, .L65
 525:Drivers/STM32F3xx_HAL_Driver/Src/stm32f3xx_hal_uart_ex.c ****       {
 761              		.loc 1 525 7 is_stmt 1 view .LVU211
 525:Drivers/STM32F3xx_HAL_Driver/Src/stm32f3xx_hal_uart_ex.c ****       {
 762              		.loc 1 525 11 is_stmt 0 view .LVU212
 763 00fc 2368     		ldr	r3, [r4]
 764 00fe DA69     		ldr	r2, [r3, #28]
 525:Drivers/STM32F3xx_HAL_Driver/Src/stm32f3xx_hal_uart_ex.c ****       {
 765              		.loc 1 525 10 view .LVU213
 766 0100 12F0100F 		tst	r2, #16
 767 0104 04D0     		beq	.L47
 528:Drivers/STM32F3xx_HAL_Driver/Src/stm32f3xx_hal_uart_ex.c **** 
 768              		.loc 1 528 9 is_stmt 1 view .LVU214
 769 0106 1022     		movs	r2, #16
 770 0108 1A62     		str	r2, [r3, #32]
 532:Drivers/STM32F3xx_HAL_Driver/Src/stm32f3xx_hal_uart_ex.c ****         {
 771              		.loc 1 532 9 view .LVU215
 532:Drivers/STM32F3xx_HAL_Driver/Src/stm32f3xx_hal_uart_ex.c ****         {
 772              		.loc 1 532 13 is_stmt 0 view .LVU216
 773 010a 2B88     		ldrh	r3, [r5]
 532:Drivers/STM32F3xx_HAL_Driver/Src/stm32f3xx_hal_uart_ex.c ****         {
 774              		.loc 1 532 12 view .LVU217
 775 010c 002B     		cmp	r3, #0
 776 010e DBD1     		bne	.L66
 777              	.L47:
 541:Drivers/STM32F3xx_HAL_Driver/Src/stm32f3xx_hal_uart_ex.c ****       {
 778              		.loc 1 541 7 is_stmt 1 view .LVU218
 541:Drivers/STM32F3xx_HAL_Driver/Src/stm32f3xx_hal_uart_ex.c ****       {
 779              		.loc 1 541 11 is_stmt 0 view .LVU219
 780 0110 2368     		ldr	r3, [r4]
 781 0112 DA69     		ldr	r2, [r3, #28]
 541:Drivers/STM32F3xx_HAL_Driver/Src/stm32f3xx_hal_uart_ex.c ****       {
ARM GAS  /tmp/ccMIeWgi.s 			page 31


 782              		.loc 1 541 10 view .LVU220
 783 0114 12F0200F 		tst	r2, #32
 784 0118 E9D0     		beq	.L48
 543:Drivers/STM32F3xx_HAL_Driver/Src/stm32f3xx_hal_uart_ex.c ****         {
 785              		.loc 1 543 9 is_stmt 1 view .LVU221
 543:Drivers/STM32F3xx_HAL_Driver/Src/stm32f3xx_hal_uart_ex.c ****         {
 786              		.loc 1 543 12 is_stmt 0 view .LVU222
 787 011a 002F     		cmp	r7, #0
 788 011c D8D0     		beq	.L67
 550:Drivers/STM32F3xx_HAL_Driver/Src/stm32f3xx_hal_uart_ex.c ****           pdata8bits++;
 789              		.loc 1 550 11 is_stmt 1 view .LVU223
 550:Drivers/STM32F3xx_HAL_Driver/Src/stm32f3xx_hal_uart_ex.c ****           pdata8bits++;
 790              		.loc 1 550 50 is_stmt 0 view .LVU224
 791 011e 9A8C     		ldrh	r2, [r3, #36]
 550:Drivers/STM32F3xx_HAL_Driver/Src/stm32f3xx_hal_uart_ex.c ****           pdata8bits++;
 792              		.loc 1 550 58 view .LVU225
 793 0120 5FFA89F3 		uxtb	r3, r9
 550:Drivers/STM32F3xx_HAL_Driver/Src/stm32f3xx_hal_uart_ex.c ****           pdata8bits++;
 794              		.loc 1 550 25 view .LVU226
 795 0124 1340     		ands	r3, r3, r2
 550:Drivers/STM32F3xx_HAL_Driver/Src/stm32f3xx_hal_uart_ex.c ****           pdata8bits++;
 796              		.loc 1 550 23 view .LVU227
 797 0126 07F8013B 		strb	r3, [r7], #1
 798              	.LVL54:
 551:Drivers/STM32F3xx_HAL_Driver/Src/stm32f3xx_hal_uart_ex.c ****         }
 799              		.loc 1 551 11 is_stmt 1 view .LVU228
 551:Drivers/STM32F3xx_HAL_Driver/Src/stm32f3xx_hal_uart_ex.c ****         }
 800              		.loc 1 551 11 is_stmt 0 view .LVU229
 801 012a D6E7     		b	.L50
 802              	.L64:
 561:Drivers/STM32F3xx_HAL_Driver/Src/stm32f3xx_hal_uart_ex.c ****         {
 803              		.loc 1 561 9 is_stmt 1 view .LVU230
 561:Drivers/STM32F3xx_HAL_Driver/Src/stm32f3xx_hal_uart_ex.c ****         {
 804              		.loc 1 561 15 is_stmt 0 view .LVU231
 805 012c FFF7FEFF 		bl	HAL_GetTick
 806              	.LVL55:
 561:Drivers/STM32F3xx_HAL_Driver/Src/stm32f3xx_hal_uart_ex.c ****         {
 807              		.loc 1 561 29 view .LVU232
 808 0130 A0EB0800 		sub	r0, r0, r8
 561:Drivers/STM32F3xx_HAL_Driver/Src/stm32f3xx_hal_uart_ex.c ****         {
 809              		.loc 1 561 12 view .LVU233
 810 0134 B042     		cmp	r0, r6
 811 0136 01D8     		bhi	.L52
 561:Drivers/STM32F3xx_HAL_Driver/Src/stm32f3xx_hal_uart_ex.c ****         {
 812              		.loc 1 561 53 discriminator 1 view .LVU234
 813 0138 002E     		cmp	r6, #0
 814 013a DBD1     		bne	.L46
 815              	.L52:
 563:Drivers/STM32F3xx_HAL_Driver/Src/stm32f3xx_hal_uart_ex.c **** 
 816              		.loc 1 563 11 is_stmt 1 view .LVU235
 563:Drivers/STM32F3xx_HAL_Driver/Src/stm32f3xx_hal_uart_ex.c **** 
 817              		.loc 1 563 26 is_stmt 0 view .LVU236
 818 013c 2023     		movs	r3, #32
 819 013e E367     		str	r3, [r4, #124]
 565:Drivers/STM32F3xx_HAL_Driver/Src/stm32f3xx_hal_uart_ex.c ****         }
 820              		.loc 1 565 11 is_stmt 1 view .LVU237
 565:Drivers/STM32F3xx_HAL_Driver/Src/stm32f3xx_hal_uart_ex.c ****         }
ARM GAS  /tmp/ccMIeWgi.s 			page 32


 821              		.loc 1 565 18 is_stmt 0 view .LVU238
 822 0140 0320     		movs	r0, #3
 823 0142 0BE0     		b	.L37
 824              	.L65:
 571:Drivers/STM32F3xx_HAL_Driver/Src/stm32f3xx_hal_uart_ex.c ****     /* At end of Rx process, restore huart->RxState to Ready */
 825              		.loc 1 571 5 is_stmt 1 view .LVU239
 571:Drivers/STM32F3xx_HAL_Driver/Src/stm32f3xx_hal_uart_ex.c ****     /* At end of Rx process, restore huart->RxState to Ready */
 826              		.loc 1 571 19 is_stmt 0 view .LVU240
 827 0144 B4F85830 		ldrh	r3, [r4, #88]
 571:Drivers/STM32F3xx_HAL_Driver/Src/stm32f3xx_hal_uart_ex.c ****     /* At end of Rx process, restore huart->RxState to Ready */
 828              		.loc 1 571 39 view .LVU241
 829 0148 B4F85A20 		ldrh	r2, [r4, #90]
 830 014c 92B2     		uxth	r2, r2
 571:Drivers/STM32F3xx_HAL_Driver/Src/stm32f3xx_hal_uart_ex.c ****     /* At end of Rx process, restore huart->RxState to Ready */
 831              		.loc 1 571 32 view .LVU242
 832 014e 9B1A     		subs	r3, r3, r2
 571:Drivers/STM32F3xx_HAL_Driver/Src/stm32f3xx_hal_uart_ex.c ****     /* At end of Rx process, restore huart->RxState to Ready */
 833              		.loc 1 571 12 view .LVU243
 834 0150 2B80     		strh	r3, [r5]	@ movhi
 573:Drivers/STM32F3xx_HAL_Driver/Src/stm32f3xx_hal_uart_ex.c **** 
 835              		.loc 1 573 5 is_stmt 1 view .LVU244
 573:Drivers/STM32F3xx_HAL_Driver/Src/stm32f3xx_hal_uart_ex.c **** 
 836              		.loc 1 573 20 is_stmt 0 view .LVU245
 837 0152 2023     		movs	r3, #32
 838 0154 E367     		str	r3, [r4, #124]
 575:Drivers/STM32F3xx_HAL_Driver/Src/stm32f3xx_hal_uart_ex.c ****   }
 839              		.loc 1 575 5 is_stmt 1 view .LVU246
 575:Drivers/STM32F3xx_HAL_Driver/Src/stm32f3xx_hal_uart_ex.c ****   }
 840              		.loc 1 575 12 is_stmt 0 view .LVU247
 841 0156 0020     		movs	r0, #0
 842 0158 00E0     		b	.L37
 843              	.LVL56:
 844              	.L54:
 579:Drivers/STM32F3xx_HAL_Driver/Src/stm32f3xx_hal_uart_ex.c ****   }
 845              		.loc 1 579 12 view .LVU248
 846 015a 0220     		movs	r0, #2
 847              	.LVL57:
 848              	.L37:
 581:Drivers/STM32F3xx_HAL_Driver/Src/stm32f3xx_hal_uart_ex.c **** 
 849              		.loc 1 581 1 view .LVU249
 850 015c BDE8F087 		pop	{r4, r5, r6, r7, r8, r9, r10, pc}
 851              	.LVL58:
 852              	.L55:
 485:Drivers/STM32F3xx_HAL_Driver/Src/stm32f3xx_hal_uart_ex.c ****     }
 853              		.loc 1 485 15 view .LVU250
 854 0160 0120     		movs	r0, #1
 855              	.LVL59:
 485:Drivers/STM32F3xx_HAL_Driver/Src/stm32f3xx_hal_uart_ex.c ****     }
 856              		.loc 1 485 15 view .LVU251
 857 0162 FBE7     		b	.L37
 858              	.LVL60:
 859              	.L56:
 485:Drivers/STM32F3xx_HAL_Driver/Src/stm32f3xx_hal_uart_ex.c ****     }
 860              		.loc 1 485 15 view .LVU252
 861 0164 0120     		movs	r0, #1
 862              	.LVL61:
 485:Drivers/STM32F3xx_HAL_Driver/Src/stm32f3xx_hal_uart_ex.c ****     }
ARM GAS  /tmp/ccMIeWgi.s 			page 33


 863              		.loc 1 485 15 view .LVU253
 864 0166 F9E7     		b	.L37
 865              	.LVL62:
 866              	.L57:
 488:Drivers/STM32F3xx_HAL_Driver/Src/stm32f3xx_hal_uart_ex.c **** 
 867              		.loc 1 488 5 view .LVU254
 868 0168 0220     		movs	r0, #2
 869              	.LVL63:
 488:Drivers/STM32F3xx_HAL_Driver/Src/stm32f3xx_hal_uart_ex.c **** 
 870              		.loc 1 488 5 view .LVU255
 871 016a F7E7     		b	.L37
 872              		.cfi_endproc
 873              	.LFE136:
 875              		.section	.text.HAL_UARTEx_ReceiveToIdle_IT,"ax",%progbits
 876              		.align	1
 877              		.global	HAL_UARTEx_ReceiveToIdle_IT
 878              		.syntax unified
 879              		.thumb
 880              		.thumb_func
 881              		.fpu fpv4-sp-d16
 883              	HAL_UARTEx_ReceiveToIdle_IT:
 884              	.LVL64:
 885              	.LFB137:
 597:Drivers/STM32F3xx_HAL_Driver/Src/stm32f3xx_hal_uart_ex.c ****   HAL_StatusTypeDef status;
 886              		.loc 1 597 1 is_stmt 1 view -0
 887              		.cfi_startproc
 888              		@ args = 0, pretend = 0, frame = 0
 889              		@ frame_needed = 0, uses_anonymous_args = 0
 598:Drivers/STM32F3xx_HAL_Driver/Src/stm32f3xx_hal_uart_ex.c **** 
 890              		.loc 1 598 3 view .LVU257
 601:Drivers/STM32F3xx_HAL_Driver/Src/stm32f3xx_hal_uart_ex.c ****   {
 891              		.loc 1 601 3 view .LVU258
 601:Drivers/STM32F3xx_HAL_Driver/Src/stm32f3xx_hal_uart_ex.c ****   {
 892              		.loc 1 601 12 is_stmt 0 view .LVU259
 893 0000 C36F     		ldr	r3, [r0, #124]
 601:Drivers/STM32F3xx_HAL_Driver/Src/stm32f3xx_hal_uart_ex.c ****   {
 894              		.loc 1 601 6 view .LVU260
 895 0002 202B     		cmp	r3, #32
 896 0004 1CD1     		bne	.L71
 597:Drivers/STM32F3xx_HAL_Driver/Src/stm32f3xx_hal_uart_ex.c ****   HAL_StatusTypeDef status;
 897              		.loc 1 597 1 view .LVU261
 898 0006 10B5     		push	{r4, lr}
 899              	.LCFI11:
 900              		.cfi_def_cfa_offset 8
 901              		.cfi_offset 4, -8
 902              		.cfi_offset 14, -4
 903 0008 0446     		mov	r4, r0
 603:Drivers/STM32F3xx_HAL_Driver/Src/stm32f3xx_hal_uart_ex.c ****     {
 904              		.loc 1 603 5 is_stmt 1 view .LVU262
 603:Drivers/STM32F3xx_HAL_Driver/Src/stm32f3xx_hal_uart_ex.c ****     {
 905              		.loc 1 603 8 is_stmt 0 view .LVU263
 906 000a D9B1     		cbz	r1, .L72
 603:Drivers/STM32F3xx_HAL_Driver/Src/stm32f3xx_hal_uart_ex.c ****     {
 907              		.loc 1 603 25 discriminator 1 view .LVU264
 908 000c E2B1     		cbz	r2, .L73
 608:Drivers/STM32F3xx_HAL_Driver/Src/stm32f3xx_hal_uart_ex.c **** 
 909              		.loc 1 608 5 is_stmt 1 view .LVU265
ARM GAS  /tmp/ccMIeWgi.s 			page 34


 608:Drivers/STM32F3xx_HAL_Driver/Src/stm32f3xx_hal_uart_ex.c **** 
 910              		.loc 1 608 5 view .LVU266
 911 000e 90F87430 		ldrb	r3, [r0, #116]	@ zero_extendqisi2
 912 0012 012B     		cmp	r3, #1
 913 0014 1AD0     		beq	.L74
 608:Drivers/STM32F3xx_HAL_Driver/Src/stm32f3xx_hal_uart_ex.c **** 
 914              		.loc 1 608 5 discriminator 2 view .LVU267
 915 0016 0123     		movs	r3, #1
 916 0018 80F87430 		strb	r3, [r0, #116]
 608:Drivers/STM32F3xx_HAL_Driver/Src/stm32f3xx_hal_uart_ex.c **** 
 917              		.loc 1 608 5 discriminator 2 view .LVU268
 611:Drivers/STM32F3xx_HAL_Driver/Src/stm32f3xx_hal_uart_ex.c **** 
 918              		.loc 1 611 5 discriminator 2 view .LVU269
 611:Drivers/STM32F3xx_HAL_Driver/Src/stm32f3xx_hal_uart_ex.c **** 
 919              		.loc 1 611 26 is_stmt 0 discriminator 2 view .LVU270
 920 001c 0366     		str	r3, [r0, #96]
 613:Drivers/STM32F3xx_HAL_Driver/Src/stm32f3xx_hal_uart_ex.c **** 
 921              		.loc 1 613 5 is_stmt 1 discriminator 2 view .LVU271
 613:Drivers/STM32F3xx_HAL_Driver/Src/stm32f3xx_hal_uart_ex.c **** 
 922              		.loc 1 613 15 is_stmt 0 discriminator 2 view .LVU272
 923 001e FFF7FEFF 		bl	UART_Start_Receive_IT
 924              	.LVL65:
 616:Drivers/STM32F3xx_HAL_Driver/Src/stm32f3xx_hal_uart_ex.c ****     {
 925              		.loc 1 616 5 is_stmt 1 discriminator 2 view .LVU273
 616:Drivers/STM32F3xx_HAL_Driver/Src/stm32f3xx_hal_uart_ex.c ****     {
 926              		.loc 1 616 8 is_stmt 0 discriminator 2 view .LVU274
 927 0022 90B9     		cbnz	r0, .L69
 618:Drivers/STM32F3xx_HAL_Driver/Src/stm32f3xx_hal_uart_ex.c ****       {
 928              		.loc 1 618 7 is_stmt 1 view .LVU275
 618:Drivers/STM32F3xx_HAL_Driver/Src/stm32f3xx_hal_uart_ex.c ****       {
 929              		.loc 1 618 16 is_stmt 0 view .LVU276
 930 0024 236E     		ldr	r3, [r4, #96]
 618:Drivers/STM32F3xx_HAL_Driver/Src/stm32f3xx_hal_uart_ex.c ****       {
 931              		.loc 1 618 10 view .LVU277
 932 0026 012B     		cmp	r3, #1
 933 0028 01D0     		beq	.L80
 629:Drivers/STM32F3xx_HAL_Driver/Src/stm32f3xx_hal_uart_ex.c ****       }
 934              		.loc 1 629 16 view .LVU278
 935 002a 0120     		movs	r0, #1
 936              	.LVL66:
 633:Drivers/STM32F3xx_HAL_Driver/Src/stm32f3xx_hal_uart_ex.c ****   }
 937              		.loc 1 633 5 is_stmt 1 view .LVU279
 633:Drivers/STM32F3xx_HAL_Driver/Src/stm32f3xx_hal_uart_ex.c ****   }
 938              		.loc 1 633 12 is_stmt 0 view .LVU280
 939 002c 0DE0     		b	.L69
 940              	.LVL67:
 941              	.L80:
 620:Drivers/STM32F3xx_HAL_Driver/Src/stm32f3xx_hal_uart_ex.c ****         SET_BIT(huart->Instance->CR1, USART_CR1_IDLEIE);
 942              		.loc 1 620 9 is_stmt 1 view .LVU281
 943 002e 2368     		ldr	r3, [r4]
 944 0030 1022     		movs	r2, #16
 945 0032 1A62     		str	r2, [r3, #32]
 621:Drivers/STM32F3xx_HAL_Driver/Src/stm32f3xx_hal_uart_ex.c ****       }
 946              		.loc 1 621 9 view .LVU282
 947 0034 2268     		ldr	r2, [r4]
 948 0036 1368     		ldr	r3, [r2]
 949 0038 43F01003 		orr	r3, r3, #16
ARM GAS  /tmp/ccMIeWgi.s 			page 35


 950 003c 1360     		str	r3, [r2]
 951 003e 04E0     		b	.L69
 952              	.LVL68:
 953              	.L71:
 954              	.LCFI12:
 955              		.cfi_def_cfa_offset 0
 956              		.cfi_restore 4
 957              		.cfi_restore 14
 637:Drivers/STM32F3xx_HAL_Driver/Src/stm32f3xx_hal_uart_ex.c ****   }
 958              		.loc 1 637 12 is_stmt 0 view .LVU283
 959 0040 0220     		movs	r0, #2
 960              	.LVL69:
 639:Drivers/STM32F3xx_HAL_Driver/Src/stm32f3xx_hal_uart_ex.c **** 
 961              		.loc 1 639 1 view .LVU284
 962 0042 7047     		bx	lr
 963              	.LVL70:
 964              	.L72:
 965              	.LCFI13:
 966              		.cfi_def_cfa_offset 8
 967              		.cfi_offset 4, -8
 968              		.cfi_offset 14, -4
 605:Drivers/STM32F3xx_HAL_Driver/Src/stm32f3xx_hal_uart_ex.c ****     }
 969              		.loc 1 605 14 view .LVU285
 970 0044 0120     		movs	r0, #1
 971              	.LVL71:
 605:Drivers/STM32F3xx_HAL_Driver/Src/stm32f3xx_hal_uart_ex.c ****     }
 972              		.loc 1 605 14 view .LVU286
 973 0046 00E0     		b	.L69
 974              	.LVL72:
 975              	.L73:
 605:Drivers/STM32F3xx_HAL_Driver/Src/stm32f3xx_hal_uart_ex.c ****     }
 976              		.loc 1 605 14 view .LVU287
 977 0048 0120     		movs	r0, #1
 978              	.LVL73:
 979              	.L69:
 639:Drivers/STM32F3xx_HAL_Driver/Src/stm32f3xx_hal_uart_ex.c **** 
 980              		.loc 1 639 1 view .LVU288
 981 004a 10BD     		pop	{r4, pc}
 982              	.LVL74:
 983              	.L74:
 608:Drivers/STM32F3xx_HAL_Driver/Src/stm32f3xx_hal_uart_ex.c **** 
 984              		.loc 1 608 5 view .LVU289
 985 004c 0220     		movs	r0, #2
 986              	.LVL75:
 608:Drivers/STM32F3xx_HAL_Driver/Src/stm32f3xx_hal_uart_ex.c **** 
 987              		.loc 1 608 5 view .LVU290
 988 004e FCE7     		b	.L69
 989              		.cfi_endproc
 990              	.LFE137:
 992              		.section	.text.HAL_UARTEx_ReceiveToIdle_DMA,"ax",%progbits
 993              		.align	1
 994              		.global	HAL_UARTEx_ReceiveToIdle_DMA
 995              		.syntax unified
 996              		.thumb
 997              		.thumb_func
 998              		.fpu fpv4-sp-d16
 1000              	HAL_UARTEx_ReceiveToIdle_DMA:
ARM GAS  /tmp/ccMIeWgi.s 			page 36


 1001              	.LVL76:
 1002              	.LFB138:
 658:Drivers/STM32F3xx_HAL_Driver/Src/stm32f3xx_hal_uart_ex.c ****   HAL_StatusTypeDef status;
 1003              		.loc 1 658 1 is_stmt 1 view -0
 1004              		.cfi_startproc
 1005              		@ args = 0, pretend = 0, frame = 0
 1006              		@ frame_needed = 0, uses_anonymous_args = 0
 659:Drivers/STM32F3xx_HAL_Driver/Src/stm32f3xx_hal_uart_ex.c **** 
 1007              		.loc 1 659 3 view .LVU292
 662:Drivers/STM32F3xx_HAL_Driver/Src/stm32f3xx_hal_uart_ex.c ****   {
 1008              		.loc 1 662 3 view .LVU293
 662:Drivers/STM32F3xx_HAL_Driver/Src/stm32f3xx_hal_uart_ex.c ****   {
 1009              		.loc 1 662 12 is_stmt 0 view .LVU294
 1010 0000 C36F     		ldr	r3, [r0, #124]
 662:Drivers/STM32F3xx_HAL_Driver/Src/stm32f3xx_hal_uart_ex.c ****   {
 1011              		.loc 1 662 6 view .LVU295
 1012 0002 202B     		cmp	r3, #32
 1013 0004 1CD1     		bne	.L84
 658:Drivers/STM32F3xx_HAL_Driver/Src/stm32f3xx_hal_uart_ex.c ****   HAL_StatusTypeDef status;
 1014              		.loc 1 658 1 view .LVU296
 1015 0006 10B5     		push	{r4, lr}
 1016              	.LCFI14:
 1017              		.cfi_def_cfa_offset 8
 1018              		.cfi_offset 4, -8
 1019              		.cfi_offset 14, -4
 1020 0008 0446     		mov	r4, r0
 664:Drivers/STM32F3xx_HAL_Driver/Src/stm32f3xx_hal_uart_ex.c ****     {
 1021              		.loc 1 664 5 is_stmt 1 view .LVU297
 664:Drivers/STM32F3xx_HAL_Driver/Src/stm32f3xx_hal_uart_ex.c ****     {
 1022              		.loc 1 664 8 is_stmt 0 view .LVU298
 1023 000a D9B1     		cbz	r1, .L85
 664:Drivers/STM32F3xx_HAL_Driver/Src/stm32f3xx_hal_uart_ex.c ****     {
 1024              		.loc 1 664 25 discriminator 1 view .LVU299
 1025 000c E2B1     		cbz	r2, .L86
 669:Drivers/STM32F3xx_HAL_Driver/Src/stm32f3xx_hal_uart_ex.c **** 
 1026              		.loc 1 669 5 is_stmt 1 view .LVU300
 669:Drivers/STM32F3xx_HAL_Driver/Src/stm32f3xx_hal_uart_ex.c **** 
 1027              		.loc 1 669 5 view .LVU301
 1028 000e 90F87430 		ldrb	r3, [r0, #116]	@ zero_extendqisi2
 1029 0012 012B     		cmp	r3, #1
 1030 0014 1AD0     		beq	.L87
 669:Drivers/STM32F3xx_HAL_Driver/Src/stm32f3xx_hal_uart_ex.c **** 
 1031              		.loc 1 669 5 discriminator 2 view .LVU302
 1032 0016 0123     		movs	r3, #1
 1033 0018 80F87430 		strb	r3, [r0, #116]
 669:Drivers/STM32F3xx_HAL_Driver/Src/stm32f3xx_hal_uart_ex.c **** 
 1034              		.loc 1 669 5 discriminator 2 view .LVU303
 672:Drivers/STM32F3xx_HAL_Driver/Src/stm32f3xx_hal_uart_ex.c **** 
 1035              		.loc 1 672 5 discriminator 2 view .LVU304
 672:Drivers/STM32F3xx_HAL_Driver/Src/stm32f3xx_hal_uart_ex.c **** 
 1036              		.loc 1 672 26 is_stmt 0 discriminator 2 view .LVU305
 1037 001c 0366     		str	r3, [r0, #96]
 674:Drivers/STM32F3xx_HAL_Driver/Src/stm32f3xx_hal_uart_ex.c **** 
 1038              		.loc 1 674 5 is_stmt 1 discriminator 2 view .LVU306
 674:Drivers/STM32F3xx_HAL_Driver/Src/stm32f3xx_hal_uart_ex.c **** 
 1039              		.loc 1 674 15 is_stmt 0 discriminator 2 view .LVU307
 1040 001e FFF7FEFF 		bl	UART_Start_Receive_DMA
ARM GAS  /tmp/ccMIeWgi.s 			page 37


 1041              	.LVL77:
 677:Drivers/STM32F3xx_HAL_Driver/Src/stm32f3xx_hal_uart_ex.c ****     {
 1042              		.loc 1 677 5 is_stmt 1 discriminator 2 view .LVU308
 677:Drivers/STM32F3xx_HAL_Driver/Src/stm32f3xx_hal_uart_ex.c ****     {
 1043              		.loc 1 677 8 is_stmt 0 discriminator 2 view .LVU309
 1044 0022 90B9     		cbnz	r0, .L82
 679:Drivers/STM32F3xx_HAL_Driver/Src/stm32f3xx_hal_uart_ex.c ****       {
 1045              		.loc 1 679 7 is_stmt 1 view .LVU310
 679:Drivers/STM32F3xx_HAL_Driver/Src/stm32f3xx_hal_uart_ex.c ****       {
 1046              		.loc 1 679 16 is_stmt 0 view .LVU311
 1047 0024 236E     		ldr	r3, [r4, #96]
 679:Drivers/STM32F3xx_HAL_Driver/Src/stm32f3xx_hal_uart_ex.c ****       {
 1048              		.loc 1 679 10 view .LVU312
 1049 0026 012B     		cmp	r3, #1
 1050 0028 01D0     		beq	.L93
 690:Drivers/STM32F3xx_HAL_Driver/Src/stm32f3xx_hal_uart_ex.c ****       }
 1051              		.loc 1 690 16 view .LVU313
 1052 002a 0120     		movs	r0, #1
 1053              	.LVL78:
 694:Drivers/STM32F3xx_HAL_Driver/Src/stm32f3xx_hal_uart_ex.c ****   }
 1054              		.loc 1 694 5 is_stmt 1 view .LVU314
 694:Drivers/STM32F3xx_HAL_Driver/Src/stm32f3xx_hal_uart_ex.c ****   }
 1055              		.loc 1 694 12 is_stmt 0 view .LVU315
 1056 002c 0DE0     		b	.L82
 1057              	.LVL79:
 1058              	.L93:
 681:Drivers/STM32F3xx_HAL_Driver/Src/stm32f3xx_hal_uart_ex.c ****         SET_BIT(huart->Instance->CR1, USART_CR1_IDLEIE);
 1059              		.loc 1 681 9 is_stmt 1 view .LVU316
 1060 002e 2368     		ldr	r3, [r4]
 1061 0030 1022     		movs	r2, #16
 1062 0032 1A62     		str	r2, [r3, #32]
 682:Drivers/STM32F3xx_HAL_Driver/Src/stm32f3xx_hal_uart_ex.c ****       }
 1063              		.loc 1 682 9 view .LVU317
 1064 0034 2268     		ldr	r2, [r4]
 1065 0036 1368     		ldr	r3, [r2]
 1066 0038 43F01003 		orr	r3, r3, #16
 1067 003c 1360     		str	r3, [r2]
 1068 003e 04E0     		b	.L82
 1069              	.LVL80:
 1070              	.L84:
 1071              	.LCFI15:
 1072              		.cfi_def_cfa_offset 0
 1073              		.cfi_restore 4
 1074              		.cfi_restore 14
 698:Drivers/STM32F3xx_HAL_Driver/Src/stm32f3xx_hal_uart_ex.c ****   }
 1075              		.loc 1 698 12 is_stmt 0 view .LVU318
 1076 0040 0220     		movs	r0, #2
 1077              	.LVL81:
 700:Drivers/STM32F3xx_HAL_Driver/Src/stm32f3xx_hal_uart_ex.c **** 
 1078              		.loc 1 700 1 view .LVU319
 1079 0042 7047     		bx	lr
 1080              	.LVL82:
 1081              	.L85:
 1082              	.LCFI16:
 1083              		.cfi_def_cfa_offset 8
 1084              		.cfi_offset 4, -8
 1085              		.cfi_offset 14, -4
ARM GAS  /tmp/ccMIeWgi.s 			page 38


 666:Drivers/STM32F3xx_HAL_Driver/Src/stm32f3xx_hal_uart_ex.c ****     }
 1086              		.loc 1 666 14 view .LVU320
 1087 0044 0120     		movs	r0, #1
 1088              	.LVL83:
 666:Drivers/STM32F3xx_HAL_Driver/Src/stm32f3xx_hal_uart_ex.c ****     }
 1089              		.loc 1 666 14 view .LVU321
 1090 0046 00E0     		b	.L82
 1091              	.LVL84:
 1092              	.L86:
 666:Drivers/STM32F3xx_HAL_Driver/Src/stm32f3xx_hal_uart_ex.c ****     }
 1093              		.loc 1 666 14 view .LVU322
 1094 0048 0120     		movs	r0, #1
 1095              	.LVL85:
 1096              	.L82:
 700:Drivers/STM32F3xx_HAL_Driver/Src/stm32f3xx_hal_uart_ex.c **** 
 1097              		.loc 1 700 1 view .LVU323
 1098 004a 10BD     		pop	{r4, pc}
 1099              	.LVL86:
 1100              	.L87:
 669:Drivers/STM32F3xx_HAL_Driver/Src/stm32f3xx_hal_uart_ex.c **** 
 1101              		.loc 1 669 5 view .LVU324
 1102 004c 0220     		movs	r0, #2
 1103              	.LVL87:
 669:Drivers/STM32F3xx_HAL_Driver/Src/stm32f3xx_hal_uart_ex.c **** 
 1104              		.loc 1 669 5 view .LVU325
 1105 004e FCE7     		b	.L82
 1106              		.cfi_endproc
 1107              	.LFE138:
 1109              		.text
 1110              	.Letext0:
 1111              		.file 2 "/home/filip/gccarm/gcc-arm-none-eabi-9-2020-q2-update/arm-none-eabi/include/machine/_defa
 1112              		.file 3 "/home/filip/gccarm/gcc-arm-none-eabi-9-2020-q2-update/arm-none-eabi/include/sys/_stdint.h
 1113              		.file 4 "Drivers/CMSIS/Include/core_cm4.h"
 1114              		.file 5 "Drivers/CMSIS/Device/ST/STM32F3xx/Include/system_stm32f3xx.h"
 1115              		.file 6 "Drivers/CMSIS/Device/ST/STM32F3xx/Include/stm32f303xe.h"
 1116              		.file 7 "Drivers/CMSIS/Device/ST/STM32F3xx/Include/stm32f3xx.h"
 1117              		.file 8 "Drivers/STM32F3xx_HAL_Driver/Inc/stm32f3xx_hal_def.h"
 1118              		.file 9 "Drivers/STM32F3xx_HAL_Driver/Inc/stm32f3xx_hal_dma.h"
 1119              		.file 10 "Drivers/STM32F3xx_HAL_Driver/Inc/stm32f3xx_hal_uart.h"
 1120              		.file 11 "Drivers/STM32F3xx_HAL_Driver/Inc/stm32f3xx_hal_uart_ex.h"
 1121              		.file 12 "Drivers/STM32F3xx_HAL_Driver/Inc/stm32f3xx_hal.h"
ARM GAS  /tmp/ccMIeWgi.s 			page 39

